
ExercicioPreAvaliacao.elf:     file format elf32-littlearm

Sections:
Idx Name          Size      VMA       LMA       File off  Algn
  0 .isr_vector   0000010c  08000000  08000000  00010000  2**0
                  CONTENTS, ALLOC, LOAD, READONLY, DATA
  1 .text         00002b24  08000110  08000110  00010110  2**4
                  CONTENTS, ALLOC, LOAD, READONLY, CODE
  2 .rodata       000000c8  08002c34  08002c34  00012c34  2**2
                  CONTENTS, ALLOC, LOAD, READONLY, DATA
  3 .ARM.extab    00000000  08002cfc  08002cfc  00020010  2**0
                  CONTENTS
  4 .ARM          00000000  08002cfc  08002cfc  00020010  2**0
                  CONTENTS
  5 .preinit_array 00000000  08002cfc  08002cfc  00020010  2**0
                  CONTENTS, ALLOC, LOAD, DATA
  6 .init_array   00000004  08002cfc  08002cfc  00012cfc  2**2
                  CONTENTS, ALLOC, LOAD, DATA
  7 .fini_array   00000004  08002d00  08002d00  00012d00  2**2
                  CONTENTS, ALLOC, LOAD, DATA
  8 .data         00000010  20000000  08002d04  00020000  2**2
                  CONTENTS, ALLOC, LOAD, DATA
  9 .bss          00001974  20000010  08002d14  00020010  2**2
                  ALLOC
 10 ._user_heap_stack 00000604  20001984  08002d14  00021984  2**0
                  ALLOC
 11 .ARM.attributes 00000029  00000000  00000000  00020010  2**0
                  CONTENTS, READONLY
 12 .debug_info   000140bd  00000000  00000000  00020039  2**0
                  CONTENTS, READONLY, DEBUGGING
 13 .debug_abbrev 00002912  00000000  00000000  000340f6  2**0
                  CONTENTS, READONLY, DEBUGGING
 14 .debug_loc    0000af96  00000000  00000000  00036a08  2**0
                  CONTENTS, READONLY, DEBUGGING
 15 .debug_aranges 000009e0  00000000  00000000  000419a0  2**3
                  CONTENTS, READONLY, DEBUGGING
 16 .debug_ranges 00001910  00000000  00000000  00042380  2**3
                  CONTENTS, READONLY, DEBUGGING
 17 .debug_macro  0000207c  00000000  00000000  00043c90  2**0
                  CONTENTS, READONLY, DEBUGGING
 18 .debug_line   00009d3d  00000000  00000000  00045d0c  2**0
                  CONTENTS, READONLY, DEBUGGING
 19 .debug_str    0008884a  00000000  00000000  0004fa49  2**0
                  CONTENTS, READONLY, DEBUGGING
 20 .comment      0000007b  00000000  00000000  000d8293  2**0
                  CONTENTS, READONLY
 21 .debug_frame  00001dc0  00000000  00000000  000d8310  2**2
                  CONTENTS, READONLY, DEBUGGING

Disassembly of section .text:

08000110 <__do_global_dtors_aux>:
 8000110:	b510      	push	{r4, lr}
 8000112:	4c05      	ldr	r4, [pc, #20]	; (8000128 <__do_global_dtors_aux+0x18>)
 8000114:	7823      	ldrb	r3, [r4, #0]
 8000116:	b933      	cbnz	r3, 8000126 <__do_global_dtors_aux+0x16>
 8000118:	4b04      	ldr	r3, [pc, #16]	; (800012c <__do_global_dtors_aux+0x1c>)
 800011a:	b113      	cbz	r3, 8000122 <__do_global_dtors_aux+0x12>
 800011c:	4804      	ldr	r0, [pc, #16]	; (8000130 <__do_global_dtors_aux+0x20>)
 800011e:	f3af 8000 	nop.w
 8000122:	2301      	movs	r3, #1
 8000124:	7023      	strb	r3, [r4, #0]
 8000126:	bd10      	pop	{r4, pc}
 8000128:	20000010 	.word	0x20000010
 800012c:	00000000 	.word	0x00000000
 8000130:	08002c1c 	.word	0x08002c1c

08000134 <frame_dummy>:
 8000134:	b508      	push	{r3, lr}
 8000136:	4b03      	ldr	r3, [pc, #12]	; (8000144 <frame_dummy+0x10>)
 8000138:	b11b      	cbz	r3, 8000142 <frame_dummy+0xe>
 800013a:	4903      	ldr	r1, [pc, #12]	; (8000148 <frame_dummy+0x14>)
 800013c:	4803      	ldr	r0, [pc, #12]	; (800014c <frame_dummy+0x18>)
 800013e:	f3af 8000 	nop.w
 8000142:	bd08      	pop	{r3, pc}
 8000144:	00000000 	.word	0x00000000
 8000148:	20000014 	.word	0x20000014
 800014c:	08002c1c 	.word	0x08002c1c

08000150 <StartDefaultTask>:
  * @param  argument: Not used
  * @retval None
  */
/* USER CODE END Header_StartDefaultTask */
void StartDefaultTask(void *argument)
{
 8000150:	b508      	push	{r3, lr}
  /* USER CODE BEGIN 5 */
  /* Infinite loop */
  for(;;)
  {
	ON_5;
 8000152:	4c09      	ldr	r4, [pc, #36]	; (8000178 <StartDefaultTask+0x28>)
 8000154:	2201      	movs	r2, #1
 8000156:	2120      	movs	r1, #32
 8000158:	4620      	mov	r0, r4
 800015a:	f000 fb1f 	bl	800079c <HAL_GPIO_WritePin>
	osDelay(100);
 800015e:	2064      	movs	r0, #100	; 0x64
 8000160:	f000 fe7a 	bl	8000e58 <osDelay>
	OFF_5;
 8000164:	4620      	mov	r0, r4
 8000166:	2200      	movs	r2, #0
 8000168:	2120      	movs	r1, #32
 800016a:	f000 fb17 	bl	800079c <HAL_GPIO_WritePin>
	osDelay(100);
 800016e:	2064      	movs	r0, #100	; 0x64
 8000170:	f000 fe72 	bl	8000e58 <osDelay>
 8000174:	e7ee      	b.n	8000154 <StartDefaultTask+0x4>
 8000176:	bf00      	nop
 8000178:	40010c00 	.word	0x40010c00

0800017c <StartTask03>:
* @param argument: Not used
* @retval None
*/
/* USER CODE END Header_StartTask03 */
void StartTask03(void *argument)
{
 800017c:	b508      	push	{r3, lr}
 800017e:	4c1a      	ldr	r4, [pc, #104]	; (80001e8 <StartTask03+0x6c>)
		osDelay(250);
		OFF_4;
		osDelay(250);
	}
	else if (cont == 11 || cont <= 20){
		ON_4;
 8000180:	4d1a      	ldr	r5, [pc, #104]	; (80001ec <StartTask03+0x70>)
 8000182:	e019      	b.n	80001b8 <StartTask03+0x3c>
	else if (cont == 11 || cont <= 20){
 8000184:	7823      	ldrb	r3, [r4, #0]
		ON_4;
 8000186:	2201      	movs	r2, #1
	else if (cont == 11 || cont <= 20){
 8000188:	2b0b      	cmp	r3, #11
		ON_4;
 800018a:	f04f 0110 	mov.w	r1, #16
 800018e:	4628      	mov	r0, r5
	else if (cont == 11 || cont <= 20){
 8000190:	d002      	beq.n	8000198 <StartTask03+0x1c>
 8000192:	7823      	ldrb	r3, [r4, #0]
 8000194:	2b14      	cmp	r3, #20
 8000196:	d823      	bhi.n	80001e0 <StartTask03+0x64>
		ON_4;
 8000198:	f000 fb00 	bl	800079c <HAL_GPIO_WritePin>
		osDelay(100);
 800019c:	2064      	movs	r0, #100	; 0x64
 800019e:	f000 fe5b 	bl	8000e58 <osDelay>
		OFF_4;
 80001a2:	4628      	mov	r0, r5
 80001a4:	2200      	movs	r2, #0
 80001a6:	2110      	movs	r1, #16
 80001a8:	f000 faf8 	bl	800079c <HAL_GPIO_WritePin>
		osDelay(100);
 80001ac:	2064      	movs	r0, #100	; 0x64
 80001ae:	f000 fe53 	bl	8000e58 <osDelay>
	}
	else{
		ON_4;
	}
    osDelay(1);
 80001b2:	2001      	movs	r0, #1
 80001b4:	f000 fe50 	bl	8000e58 <osDelay>
	if(cont < 11){
 80001b8:	7823      	ldrb	r3, [r4, #0]
 80001ba:	2b0a      	cmp	r3, #10
 80001bc:	d8e2      	bhi.n	8000184 <StartTask03+0x8>
		ON_4;
 80001be:	2201      	movs	r2, #1
 80001c0:	2110      	movs	r1, #16
 80001c2:	4628      	mov	r0, r5
 80001c4:	f000 faea 	bl	800079c <HAL_GPIO_WritePin>
		osDelay(250);
 80001c8:	20fa      	movs	r0, #250	; 0xfa
 80001ca:	f000 fe45 	bl	8000e58 <osDelay>
		OFF_4;
 80001ce:	4628      	mov	r0, r5
 80001d0:	2200      	movs	r2, #0
 80001d2:	2110      	movs	r1, #16
 80001d4:	f000 fae2 	bl	800079c <HAL_GPIO_WritePin>
		osDelay(250);
 80001d8:	20fa      	movs	r0, #250	; 0xfa
 80001da:	f000 fe3d 	bl	8000e58 <osDelay>
 80001de:	e7e8      	b.n	80001b2 <StartTask03+0x36>
		ON_4;
 80001e0:	f000 fadc 	bl	800079c <HAL_GPIO_WritePin>
 80001e4:	e7e5      	b.n	80001b2 <StartTask03+0x36>
 80001e6:	bf00      	nop
 80001e8:	2000002c 	.word	0x2000002c
 80001ec:	40010c00 	.word	0x40010c00

080001f0 <StartTask02>:
{
 80001f0:	b5f8      	push	{r3, r4, r5, r6, r7, lr}
	uint8_t botao_cont = 0;
 80001f2:	2500      	movs	r5, #0
	uint8_t botao_anterior = 1;
 80001f4:	2401      	movs	r4, #1
 80001f6:	4f12      	ldr	r7, [pc, #72]	; (8000240 <StartTask02+0x50>)
	  botao = HAL_GPIO_ReadPin(GPIOA, GPIO_PIN_12);
 80001f8:	4e12      	ldr	r6, [pc, #72]	; (8000244 <StartTask02+0x54>)
 80001fa:	e004      	b.n	8000206 <StartTask02+0x16>
 80001fc:	4604      	mov	r4, r0
		  botao_cont = 0;
 80001fe:	2500      	movs	r5, #0
    osDelay(10);
 8000200:	200a      	movs	r0, #10
 8000202:	f000 fe29 	bl	8000e58 <osDelay>
	  botao = HAL_GPIO_ReadPin(GPIOA, GPIO_PIN_12);
 8000206:	f44f 5180 	mov.w	r1, #4096	; 0x1000
 800020a:	4630      	mov	r0, r6
 800020c:	f000 fac0 	bl	8000790 <HAL_GPIO_ReadPin>
	  if (botao == botao_anterior)
 8000210:	4284      	cmp	r4, r0
 8000212:	d1f3      	bne.n	80001fc <StartTask02+0xc>
		  if (botao_cont < 10) botao_cont++;
 8000214:	2d09      	cmp	r5, #9
 8000216:	f105 0301 	add.w	r3, r5, #1
 800021a:	d8f1      	bhi.n	8000200 <StartTask02+0x10>
 800021c:	b2dd      	uxtb	r5, r3
	  if (botao_cont == 5 && botao == 0)
 800021e:	2d05      	cmp	r5, #5
 8000220:	d1ee      	bne.n	8000200 <StartTask02+0x10>
 8000222:	2c00      	cmp	r4, #0
 8000224:	d1ec      	bne.n	8000200 <StartTask02+0x10>
	    cont++;
 8000226:	783b      	ldrb	r3, [r7, #0]
 8000228:	3301      	adds	r3, #1
 800022a:	b2db      	uxtb	r3, r3
 800022c:	703b      	strb	r3, [r7, #0]
	    if (cont > 21) cont = 21;
 800022e:	783b      	ldrb	r3, [r7, #0]
 8000230:	2b15      	cmp	r3, #21
 8000232:	d903      	bls.n	800023c <StartTask02+0x4c>
 8000234:	2315      	movs	r3, #21
	    botao_cont = 0;
 8000236:	4625      	mov	r5, r4
	    if (cont > 21) cont = 21;
 8000238:	703b      	strb	r3, [r7, #0]
 800023a:	e7e1      	b.n	8000200 <StartTask02+0x10>
	    botao_cont = 0;
 800023c:	4625      	mov	r5, r4
 800023e:	e7df      	b.n	8000200 <StartTask02+0x10>
 8000240:	2000002c 	.word	0x2000002c
 8000244:	40010800 	.word	0x40010800

08000248 <SystemClock_Config>:
{
 8000248:	b530      	push	{r4, r5, lr}
 800024a:	b091      	sub	sp, #68	; 0x44
  RCC_OscInitTypeDef RCC_OscInitStruct = {0};
 800024c:	2220      	movs	r2, #32
 800024e:	2100      	movs	r1, #0
 8000250:	a807      	add	r0, sp, #28
 8000252:	f002 fcda 	bl	8002c0a <memset>
  RCC_OscInitStruct.OscillatorType = RCC_OSCILLATORTYPE_HSI;
 8000256:	2402      	movs	r4, #2
  RCC_ClkInitTypeDef RCC_ClkInitStruct = {0};
 8000258:	2300      	movs	r3, #0
  RCC_OscInitStruct.HSIState = RCC_HSI_ON;
 800025a:	2501      	movs	r5, #1
  RCC_OscInitStruct.HSICalibrationValue = RCC_HSICALIBRATION_DEFAULT;
 800025c:	2110      	movs	r1, #16
  RCC_OscInitStruct.PLL.PLLMUL = RCC_PLL_MUL16;
 800025e:	f44f 1260 	mov.w	r2, #3670016	; 0x380000
  if (HAL_RCC_OscConfig(&RCC_OscInitStruct) != HAL_OK)
 8000262:	a806      	add	r0, sp, #24
  RCC_ClkInitTypeDef RCC_ClkInitStruct = {0};
 8000264:	e9cd 3301 	strd	r3, r3, [sp, #4]
 8000268:	e9cd 3303 	strd	r3, r3, [sp, #12]
 800026c:	9305      	str	r3, [sp, #20]
  RCC_OscInitStruct.OscillatorType = RCC_OSCILLATORTYPE_HSI;
 800026e:	9406      	str	r4, [sp, #24]
  RCC_OscInitStruct.PLL.PLLState = RCC_PLL_ON;
 8000270:	940d      	str	r4, [sp, #52]	; 0x34
  RCC_OscInitStruct.HSICalibrationValue = RCC_HSICALIBRATION_DEFAULT;
 8000272:	e9cd 510a 	strd	r5, r1, [sp, #40]	; 0x28
  RCC_OscInitStruct.PLL.PLLMUL = RCC_PLL_MUL16;
 8000276:	920f      	str	r2, [sp, #60]	; 0x3c
  if (HAL_RCC_OscConfig(&RCC_OscInitStruct) != HAL_OK)
 8000278:	f000 fa94 	bl	80007a4 <HAL_RCC_OscConfig>
 800027c:	b108      	cbz	r0, 8000282 <SystemClock_Config+0x3a>
  \details Disables IRQ interrupts by setting the I-bit in the CPSR.
           Can only be executed in Privileged modes.
 */
__STATIC_FORCEINLINE void __disable_irq(void)
{
  __ASM volatile ("cpsid i" : : : "memory");
 800027e:	b672      	cpsid	i
 8000280:	e7fe      	b.n	8000280 <SystemClock_Config+0x38>
 8000282:	4603      	mov	r3, r0
  RCC_ClkInitStruct.ClockType = RCC_CLOCKTYPE_HCLK|RCC_CLOCKTYPE_SYSCLK
 8000284:	250f      	movs	r5, #15
  RCC_ClkInitStruct.APB1CLKDivider = RCC_HCLK_DIV2;
 8000286:	f44f 6280 	mov.w	r2, #1024	; 0x400
  if (HAL_RCC_ClockConfig(&RCC_ClkInitStruct, FLASH_LATENCY_2) != HAL_OK)
 800028a:	a801      	add	r0, sp, #4
 800028c:	4621      	mov	r1, r4
  RCC_ClkInitStruct.AHBCLKDivider = RCC_SYSCLK_DIV1;
 800028e:	e9cd 4302 	strd	r4, r3, [sp, #8]
  RCC_ClkInitStruct.APB2CLKDivider = RCC_HCLK_DIV1;
 8000292:	9305      	str	r3, [sp, #20]
  RCC_ClkInitStruct.ClockType = RCC_CLOCKTYPE_HCLK|RCC_CLOCKTYPE_SYSCLK
 8000294:	9501      	str	r5, [sp, #4]
  RCC_ClkInitStruct.APB1CLKDivider = RCC_HCLK_DIV2;
 8000296:	9204      	str	r2, [sp, #16]
  if (HAL_RCC_ClockConfig(&RCC_ClkInitStruct, FLASH_LATENCY_2) != HAL_OK)
 8000298:	f000 fc7c 	bl	8000b94 <HAL_RCC_ClockConfig>
 800029c:	b108      	cbz	r0, 80002a2 <SystemClock_Config+0x5a>
 800029e:	b672      	cpsid	i
 80002a0:	e7fe      	b.n	80002a0 <SystemClock_Config+0x58>
}
 80002a2:	b011      	add	sp, #68	; 0x44
 80002a4:	bd30      	pop	{r4, r5, pc}
 80002a6:	bf00      	nop

080002a8 <main>:
  GPIO_InitTypeDef GPIO_InitStruct = {0};
 80002a8:	2400      	movs	r4, #0
{
 80002aa:	b500      	push	{lr}
 80002ac:	b087      	sub	sp, #28
  HAL_Init();
 80002ae:	f000 f8f1 	bl	8000494 <HAL_Init>
  SystemClock_Config();
 80002b2:	f7ff ffc9 	bl	8000248 <SystemClock_Config>
  GPIO_InitTypeDef GPIO_InitStruct = {0};
 80002b6:	e9cd 4402 	strd	r4, r4, [sp, #8]
 80002ba:	e9cd 4404 	strd	r4, r4, [sp, #16]
  __HAL_RCC_GPIOA_CLK_ENABLE();
 80002be:	4b23      	ldr	r3, [pc, #140]	; (800034c <main+0xa4>)
  HAL_GPIO_WritePin(GPIOB, GPIO_PIN_3|GPIO_PIN_4, GPIO_PIN_RESET);
 80002c0:	4622      	mov	r2, r4
  __HAL_RCC_GPIOA_CLK_ENABLE();
 80002c2:	6999      	ldr	r1, [r3, #24]
  GPIO_InitStruct.Pull = GPIO_PULLUP;
 80002c4:	2501      	movs	r5, #1
  __HAL_RCC_GPIOA_CLK_ENABLE();
 80002c6:	f041 0104 	orr.w	r1, r1, #4
 80002ca:	6199      	str	r1, [r3, #24]
 80002cc:	6998      	ldr	r0, [r3, #24]
  HAL_GPIO_WritePin(GPIOB, GPIO_PIN_3|GPIO_PIN_4, GPIO_PIN_RESET);
 80002ce:	2118      	movs	r1, #24
  __HAL_RCC_GPIOA_CLK_ENABLE();
 80002d0:	f000 0004 	and.w	r0, r0, #4
 80002d4:	9000      	str	r0, [sp, #0]
 80002d6:	9800      	ldr	r0, [sp, #0]
  __HAL_RCC_GPIOB_CLK_ENABLE();
 80002d8:	6998      	ldr	r0, [r3, #24]
 80002da:	f040 0008 	orr.w	r0, r0, #8
 80002de:	6198      	str	r0, [r3, #24]
 80002e0:	699b      	ldr	r3, [r3, #24]
  HAL_GPIO_WritePin(GPIOB, GPIO_PIN_3|GPIO_PIN_4, GPIO_PIN_RESET);
 80002e2:	481b      	ldr	r0, [pc, #108]	; (8000350 <main+0xa8>)
  __HAL_RCC_GPIOB_CLK_ENABLE();
 80002e4:	f003 0308 	and.w	r3, r3, #8
 80002e8:	9301      	str	r3, [sp, #4]
 80002ea:	9b01      	ldr	r3, [sp, #4]
  HAL_GPIO_WritePin(GPIOB, GPIO_PIN_3|GPIO_PIN_4, GPIO_PIN_RESET);
 80002ec:	f000 fa56 	bl	800079c <HAL_GPIO_WritePin>
  GPIO_InitStruct.Pin = GPIO_PIN_12;
 80002f0:	f44f 5380 	mov.w	r3, #4096	; 0x1000
  HAL_GPIO_Init(GPIOA, &GPIO_InitStruct);
 80002f4:	a902      	add	r1, sp, #8
 80002f6:	4817      	ldr	r0, [pc, #92]	; (8000354 <main+0xac>)
  GPIO_InitStruct.Pin = GPIO_PIN_12;
 80002f8:	e9cd 3402 	strd	r3, r4, [sp, #8]
  GPIO_InitStruct.Pull = GPIO_PULLUP;
 80002fc:	9504      	str	r5, [sp, #16]
  HAL_GPIO_Init(GPIOA, &GPIO_InitStruct);
 80002fe:	f000 f94d 	bl	800059c <HAL_GPIO_Init>
  GPIO_InitStruct.Speed = GPIO_SPEED_FREQ_LOW;
 8000302:	2302      	movs	r3, #2
  GPIO_InitStruct.Pin = GPIO_PIN_3|GPIO_PIN_4;
 8000304:	2218      	movs	r2, #24
  HAL_GPIO_Init(GPIOB, &GPIO_InitStruct);
 8000306:	a902      	add	r1, sp, #8
 8000308:	4811      	ldr	r0, [pc, #68]	; (8000350 <main+0xa8>)
  GPIO_InitStruct.Speed = GPIO_SPEED_FREQ_LOW;
 800030a:	9305      	str	r3, [sp, #20]
  GPIO_InitStruct.Pin = GPIO_PIN_3|GPIO_PIN_4;
 800030c:	9202      	str	r2, [sp, #8]
  GPIO_InitStruct.Pull = GPIO_NOPULL;
 800030e:	e9cd 5403 	strd	r5, r4, [sp, #12]
  HAL_GPIO_Init(GPIOB, &GPIO_InitStruct);
 8000312:	f000 f943 	bl	800059c <HAL_GPIO_Init>
  osKernelInitialize();
 8000316:	f000 fd09 	bl	8000d2c <osKernelInitialize>
  defaultTaskHandle = osThreadNew(StartDefaultTask, NULL, &defaultTask_attributes);
 800031a:	4621      	mov	r1, r4
 800031c:	4a0e      	ldr	r2, [pc, #56]	; (8000358 <main+0xb0>)
 800031e:	480f      	ldr	r0, [pc, #60]	; (800035c <main+0xb4>)
 8000320:	f000 fd40 	bl	8000da4 <osThreadNew>
 8000324:	4b0e      	ldr	r3, [pc, #56]	; (8000360 <main+0xb8>)
  myTask02Handle = osThreadNew(StartTask02, NULL, &myTask02_attributes);
 8000326:	4621      	mov	r1, r4
  defaultTaskHandle = osThreadNew(StartDefaultTask, NULL, &defaultTask_attributes);
 8000328:	6018      	str	r0, [r3, #0]
  myTask02Handle = osThreadNew(StartTask02, NULL, &myTask02_attributes);
 800032a:	4a0e      	ldr	r2, [pc, #56]	; (8000364 <main+0xbc>)
 800032c:	480e      	ldr	r0, [pc, #56]	; (8000368 <main+0xc0>)
 800032e:	f000 fd39 	bl	8000da4 <osThreadNew>
 8000332:	4b0e      	ldr	r3, [pc, #56]	; (800036c <main+0xc4>)
  myTask03Handle = osThreadNew(StartTask03, NULL, &myTask03_attributes);
 8000334:	4621      	mov	r1, r4
  myTask02Handle = osThreadNew(StartTask02, NULL, &myTask02_attributes);
 8000336:	6018      	str	r0, [r3, #0]
  myTask03Handle = osThreadNew(StartTask03, NULL, &myTask03_attributes);
 8000338:	4a0d      	ldr	r2, [pc, #52]	; (8000370 <main+0xc8>)
 800033a:	480e      	ldr	r0, [pc, #56]	; (8000374 <main+0xcc>)
 800033c:	f000 fd32 	bl	8000da4 <osThreadNew>
 8000340:	4b0d      	ldr	r3, [pc, #52]	; (8000378 <main+0xd0>)
 8000342:	6018      	str	r0, [r3, #0]
  osKernelStart();
 8000344:	f000 fd0c 	bl	8000d60 <osKernelStart>
 8000348:	e7fe      	b.n	8000348 <main+0xa0>
 800034a:	bf00      	nop
 800034c:	40021000 	.word	0x40021000
 8000350:	40010c00 	.word	0x40010c00
 8000354:	40010800 	.word	0x40010800
 8000358:	08002c44 	.word	0x08002c44
 800035c:	08000151 	.word	0x08000151
 8000360:	20001934 	.word	0x20001934
 8000364:	08002c68 	.word	0x08002c68
 8000368:	080001f1 	.word	0x080001f1
 800036c:	20001938 	.word	0x20001938
 8000370:	08002c8c 	.word	0x08002c8c
 8000374:	0800017d 	.word	0x0800017d
 8000378:	2000193c 	.word	0x2000193c

0800037c <HAL_MspInit>:
{
  /* USER CODE BEGIN MspInit 0 */

  /* USER CODE END MspInit 0 */

  __HAL_RCC_AFIO_CLK_ENABLE();
 800037c:	4b11      	ldr	r3, [pc, #68]	; (80003c4 <HAL_MspInit+0x48>)
{
 800037e:	b510      	push	{r4, lr}
  __HAL_RCC_AFIO_CLK_ENABLE();
 8000380:	6998      	ldr	r0, [r3, #24]
{
 8000382:	b082      	sub	sp, #8
  __HAL_RCC_AFIO_CLK_ENABLE();
 8000384:	f040 0001 	orr.w	r0, r0, #1
 8000388:	6198      	str	r0, [r3, #24]
 800038a:	699c      	ldr	r4, [r3, #24]
  __HAL_RCC_PWR_CLK_ENABLE();

  /* System interrupt init*/
  /* PendSV_IRQn interrupt configuration */
  HAL_NVIC_SetPriority(PendSV_IRQn, 15, 0);
 800038c:	2200      	movs	r2, #0
  __HAL_RCC_AFIO_CLK_ENABLE();
 800038e:	f004 0401 	and.w	r4, r4, #1
 8000392:	9400      	str	r4, [sp, #0]
 8000394:	9c00      	ldr	r4, [sp, #0]
  __HAL_RCC_PWR_CLK_ENABLE();
 8000396:	69dc      	ldr	r4, [r3, #28]
  HAL_NVIC_SetPriority(PendSV_IRQn, 15, 0);
 8000398:	210f      	movs	r1, #15
  __HAL_RCC_PWR_CLK_ENABLE();
 800039a:	f044 5480 	orr.w	r4, r4, #268435456	; 0x10000000
 800039e:	61dc      	str	r4, [r3, #28]
 80003a0:	69db      	ldr	r3, [r3, #28]
  HAL_NVIC_SetPriority(PendSV_IRQn, 15, 0);
 80003a2:	f06f 0001 	mvn.w	r0, #1
  __HAL_RCC_PWR_CLK_ENABLE();
 80003a6:	f003 5380 	and.w	r3, r3, #268435456	; 0x10000000
 80003aa:	9301      	str	r3, [sp, #4]
 80003ac:	9b01      	ldr	r3, [sp, #4]
  HAL_NVIC_SetPriority(PendSV_IRQn, 15, 0);
 80003ae:	f000 f8a7 	bl	8000500 <HAL_NVIC_SetPriority>

  /** NOJTAG: JTAG-DP Disabled and SW-DP Enabled
  */
  __HAL_AFIO_REMAP_SWJ_NOJTAG();
 80003b2:	4a05      	ldr	r2, [pc, #20]	; (80003c8 <HAL_MspInit+0x4c>)
 80003b4:	6853      	ldr	r3, [r2, #4]
 80003b6:	f023 63e0 	bic.w	r3, r3, #117440512	; 0x7000000
 80003ba:	f043 7300 	orr.w	r3, r3, #33554432	; 0x2000000
 80003be:	6053      	str	r3, [r2, #4]

  /* USER CODE BEGIN MspInit 1 */

  /* USER CODE END MspInit 1 */
}
 80003c0:	b002      	add	sp, #8
 80003c2:	bd10      	pop	{r4, pc}
 80003c4:	40021000 	.word	0x40021000
 80003c8:	40010000 	.word	0x40010000

080003cc <NMI_Handler>:
/******************************************************************************/
/**
  * @brief This function handles Non maskable interrupt.
  */
void NMI_Handler(void)
{
 80003cc:	e7fe      	b.n	80003cc <NMI_Handler>
 80003ce:	bf00      	nop

080003d0 <HardFault_Handler>:

/**
  * @brief This function handles Hard fault interrupt.
  */
void HardFault_Handler(void)
{
 80003d0:	e7fe      	b.n	80003d0 <HardFault_Handler>
 80003d2:	bf00      	nop

080003d4 <MemManage_Handler>:

/**
  * @brief This function handles Memory management fault.
  */
void MemManage_Handler(void)
{
 80003d4:	e7fe      	b.n	80003d4 <MemManage_Handler>
 80003d6:	bf00      	nop

080003d8 <BusFault_Handler>:

/**
  * @brief This function handles Prefetch fault, memory access fault.
  */
void BusFault_Handler(void)
{
 80003d8:	e7fe      	b.n	80003d8 <BusFault_Handler>
 80003da:	bf00      	nop

080003dc <UsageFault_Handler>:

/**
  * @brief This function handles Undefined instruction or illegal state.
  */
void UsageFault_Handler(void)
{
 80003dc:	e7fe      	b.n	80003dc <UsageFault_Handler>
 80003de:	bf00      	nop

080003e0 <DebugMon_Handler>:

  /* USER CODE END DebugMonitor_IRQn 0 */
  /* USER CODE BEGIN DebugMonitor_IRQn 1 */

  /* USER CODE END DebugMonitor_IRQn 1 */
}
 80003e0:	4770      	bx	lr
 80003e2:	bf00      	nop

080003e4 <SysTick_Handler>:

/**
  * @brief This function handles System tick timer.
  */
void SysTick_Handler(void)
{
 80003e4:	b508      	push	{r3, lr}
  /* USER CODE BEGIN SysTick_IRQn 0 */

  /* USER CODE END SysTick_IRQn 0 */
  HAL_IncTick();
 80003e6:	f000 f867 	bl	80004b8 <HAL_IncTick>
#if (INCLUDE_xTaskGetSchedulerState == 1 )
  if (xTaskGetSchedulerState() != taskSCHEDULER_NOT_STARTED)
 80003ea:	f001 ff87 	bl	80022fc <xTaskGetSchedulerState>
 80003ee:	2801      	cmp	r0, #1
 80003f0:	d003      	beq.n	80003fa <SysTick_Handler+0x16>
  }
#endif /* INCLUDE_xTaskGetSchedulerState */
  /* USER CODE BEGIN SysTick_IRQn 1 */

  /* USER CODE END SysTick_IRQn 1 */
}
 80003f2:	e8bd 4008 	ldmia.w	sp!, {r3, lr}
  xPortSysTickHandler();
 80003f6:	f002 ba55 	b.w	80028a4 <xPortSysTickHandler>
}
 80003fa:	bd08      	pop	{r3, pc}

080003fc <SystemInit>:

  /* Configure the Vector Table location -------------------------------------*/
#if defined(USER_VECT_TAB_ADDRESS)
  SCB->VTOR = VECT_TAB_BASE_ADDRESS | VECT_TAB_OFFSET; /* Vector Table Relocation in Internal SRAM. */
#endif /* USER_VECT_TAB_ADDRESS */
}
 80003fc:	4770      	bx	lr
 80003fe:	bf00      	nop

08000400 <Reset_Handler>:
  .weak Reset_Handler
  .type Reset_Handler, %function
Reset_Handler:

/* Copy the data segment initializers from flash to SRAM */
  ldr r0, =_sdata
 8000400:	480c      	ldr	r0, [pc, #48]	; (8000434 <LoopFillZerobss+0x12>)
  ldr r1, =_edata
 8000402:	490d      	ldr	r1, [pc, #52]	; (8000438 <LoopFillZerobss+0x16>)
  ldr r2, =_sidata
 8000404:	4a0d      	ldr	r2, [pc, #52]	; (800043c <LoopFillZerobss+0x1a>)
  movs r3, #0
 8000406:	2300      	movs	r3, #0
  b LoopCopyDataInit
 8000408:	e002      	b.n	8000410 <LoopCopyDataInit>

0800040a <CopyDataInit>:

CopyDataInit:
  ldr r4, [r2, r3]
 800040a:	58d4      	ldr	r4, [r2, r3]
  str r4, [r0, r3]
 800040c:	50c4      	str	r4, [r0, r3]
  adds r3, r3, #4
 800040e:	3304      	adds	r3, #4

08000410 <LoopCopyDataInit>:

LoopCopyDataInit:
  adds r4, r0, r3
 8000410:	18c4      	adds	r4, r0, r3
  cmp r4, r1
 8000412:	428c      	cmp	r4, r1
  bcc CopyDataInit
 8000414:	d3f9      	bcc.n	800040a <CopyDataInit>
  
/* Zero fill the bss segment. */
  ldr r2, =_sbss
 8000416:	4a0a      	ldr	r2, [pc, #40]	; (8000440 <LoopFillZerobss+0x1e>)
  ldr r4, =_ebss
 8000418:	4c0a      	ldr	r4, [pc, #40]	; (8000444 <LoopFillZerobss+0x22>)
  movs r3, #0
 800041a:	2300      	movs	r3, #0
  b LoopFillZerobss
 800041c:	e001      	b.n	8000422 <LoopFillZerobss>

0800041e <FillZerobss>:

FillZerobss:
  str  r3, [r2]
 800041e:	6013      	str	r3, [r2, #0]
  adds r2, r2, #4
 8000420:	3204      	adds	r2, #4

08000422 <LoopFillZerobss>:

LoopFillZerobss:
  cmp r2, r4
 8000422:	42a2      	cmp	r2, r4
  bcc FillZerobss
 8000424:	d3fb      	bcc.n	800041e <FillZerobss>

/* Call the clock system intitialization function.*/
    bl  SystemInit
 8000426:	f7ff ffe9 	bl	80003fc <SystemInit>
/* Call static constructors */
    bl __libc_init_array
 800042a:	f002 fbbf 	bl	8002bac <__libc_init_array>
/* Call the application's entry point.*/
  bl main
 800042e:	f7ff ff3b 	bl	80002a8 <main>
  bx lr
 8000432:	4770      	bx	lr
  ldr r0, =_sdata
 8000434:	20000000 	.word	0x20000000
  ldr r1, =_edata
 8000438:	20000010 	.word	0x20000010
  ldr r2, =_sidata
 800043c:	08002d04 	.word	0x08002d04
  ldr r2, =_sbss
 8000440:	20000010 	.word	0x20000010
  ldr r4, =_ebss
 8000444:	20001984 	.word	0x20001984

08000448 <ADC1_2_IRQHandler>:
 * @retval : None
*/
    .section .text.Default_Handler,"ax",%progbits
Default_Handler:
Infinite_Loop:
  b Infinite_Loop
 8000448:	e7fe      	b.n	8000448 <ADC1_2_IRQHandler>
	...

0800044c <HAL_InitTick>:
  *       implementation  in user file.
  * @param TickPriority Tick interrupt priority.
  * @retval HAL status
  */
__weak HAL_StatusTypeDef HAL_InitTick(uint32_t TickPriority)
{
 800044c:	b538      	push	{r3, r4, r5, lr}
  /* Configure the SysTick to have interrupt in 1ms time basis*/
  if (HAL_SYSTICK_Config(SystemCoreClock / (1000U / uwTickFreq)) > 0U)
 800044e:	f44f 737a 	mov.w	r3, #1000	; 0x3e8
 8000452:	490d      	ldr	r1, [pc, #52]	; (8000488 <HAL_InitTick+0x3c>)
 8000454:	4a0d      	ldr	r2, [pc, #52]	; (800048c <HAL_InitTick+0x40>)
 8000456:	7809      	ldrb	r1, [r1, #0]
 8000458:	6812      	ldr	r2, [r2, #0]
 800045a:	fbb3 f3f1 	udiv	r3, r3, r1
{
 800045e:	4605      	mov	r5, r0
  if (HAL_SYSTICK_Config(SystemCoreClock / (1000U / uwTickFreq)) > 0U)
 8000460:	fbb2 f0f3 	udiv	r0, r2, r3
 8000464:	f000 f882 	bl	800056c <HAL_SYSTICK_Config>
 8000468:	b908      	cbnz	r0, 800046e <HAL_InitTick+0x22>
  {
    return HAL_ERROR;
  }

  /* Configure the SysTick IRQ priority */
  if (TickPriority < (1UL << __NVIC_PRIO_BITS))
 800046a:	2d0f      	cmp	r5, #15
 800046c:	d901      	bls.n	8000472 <HAL_InitTick+0x26>
    return HAL_ERROR;
 800046e:	2001      	movs	r0, #1
    return HAL_ERROR;
  }

  /* Return function status */
  return HAL_OK;
}
 8000470:	bd38      	pop	{r3, r4, r5, pc}
 8000472:	4604      	mov	r4, r0
    HAL_NVIC_SetPriority(SysTick_IRQn, TickPriority, 0U);
 8000474:	4602      	mov	r2, r0
 8000476:	4629      	mov	r1, r5
 8000478:	f04f 30ff 	mov.w	r0, #4294967295
 800047c:	f000 f840 	bl	8000500 <HAL_NVIC_SetPriority>
    uwTickPrio = TickPriority;
 8000480:	4b03      	ldr	r3, [pc, #12]	; (8000490 <HAL_InitTick+0x44>)
 8000482:	4620      	mov	r0, r4
 8000484:	601d      	str	r5, [r3, #0]
}
 8000486:	bd38      	pop	{r3, r4, r5, pc}
 8000488:	20000004 	.word	0x20000004
 800048c:	20000000 	.word	0x20000000
 8000490:	20000008 	.word	0x20000008

08000494 <HAL_Init>:
  __HAL_FLASH_PREFETCH_BUFFER_ENABLE();
 8000494:	4a07      	ldr	r2, [pc, #28]	; (80004b4 <HAL_Init+0x20>)
{
 8000496:	b508      	push	{r3, lr}
  __HAL_FLASH_PREFETCH_BUFFER_ENABLE();
 8000498:	6813      	ldr	r3, [r2, #0]
  HAL_NVIC_SetPriorityGrouping(NVIC_PRIORITYGROUP_4);
 800049a:	2003      	movs	r0, #3
  __HAL_FLASH_PREFETCH_BUFFER_ENABLE();
 800049c:	f043 0310 	orr.w	r3, r3, #16
 80004a0:	6013      	str	r3, [r2, #0]
  HAL_NVIC_SetPriorityGrouping(NVIC_PRIORITYGROUP_4);
 80004a2:	f000 f81b 	bl	80004dc <HAL_NVIC_SetPriorityGrouping>
  HAL_InitTick(TICK_INT_PRIORITY);
 80004a6:	200f      	movs	r0, #15
 80004a8:	f7ff ffd0 	bl	800044c <HAL_InitTick>
  HAL_MspInit();
 80004ac:	f7ff ff66 	bl	800037c <HAL_MspInit>
}
 80004b0:	2000      	movs	r0, #0
 80004b2:	bd08      	pop	{r3, pc}
 80004b4:	40022000 	.word	0x40022000

080004b8 <HAL_IncTick>:
  *      implementations in user file.
  * @retval None
  */
__weak void HAL_IncTick(void)
{
  uwTick += uwTickFreq;
 80004b8:	4a03      	ldr	r2, [pc, #12]	; (80004c8 <HAL_IncTick+0x10>)
 80004ba:	4b04      	ldr	r3, [pc, #16]	; (80004cc <HAL_IncTick+0x14>)
 80004bc:	6811      	ldr	r1, [r2, #0]
 80004be:	781b      	ldrb	r3, [r3, #0]
 80004c0:	440b      	add	r3, r1
 80004c2:	6013      	str	r3, [r2, #0]
}
 80004c4:	4770      	bx	lr
 80004c6:	bf00      	nop
 80004c8:	20001940 	.word	0x20001940
 80004cc:	20000004 	.word	0x20000004

080004d0 <HAL_GetTick>:
  *       implementations in user file.
  * @retval tick value
  */
__weak uint32_t HAL_GetTick(void)
{
  return uwTick;
 80004d0:	4b01      	ldr	r3, [pc, #4]	; (80004d8 <HAL_GetTick+0x8>)
 80004d2:	6818      	ldr	r0, [r3, #0]
}
 80004d4:	4770      	bx	lr
 80004d6:	bf00      	nop
 80004d8:	20001940 	.word	0x20001940

080004dc <HAL_NVIC_SetPriorityGrouping>:
{
  uint32_t reg_value;
  uint32_t PriorityGroupTmp = (PriorityGroup & (uint32_t)0x07UL);             /* only values 0..7 are used          */

  reg_value  =  SCB->AIRCR;                                                   /* read old register configuration    */
  reg_value &= ~((uint32_t)(SCB_AIRCR_VECTKEY_Msk | SCB_AIRCR_PRIGROUP_Msk)); /* clear bits to change               */
 80004dc:	f64f 01ff 	movw	r1, #63743	; 0xf8ff
  reg_value  =  SCB->AIRCR;                                                   /* read old register configuration    */
 80004e0:	4a06      	ldr	r2, [pc, #24]	; (80004fc <HAL_NVIC_SetPriorityGrouping+0x20>)
  reg_value  =  (reg_value                                   |
                ((uint32_t)0x5FAUL << SCB_AIRCR_VECTKEY_Pos) |
                (PriorityGroupTmp << SCB_AIRCR_PRIGROUP_Pos) );               /* Insert write key and priority group */
 80004e2:	0200      	lsls	r0, r0, #8
  reg_value  =  SCB->AIRCR;                                                   /* read old register configuration    */
 80004e4:	68d3      	ldr	r3, [r2, #12]
                (PriorityGroupTmp << SCB_AIRCR_PRIGROUP_Pos) );               /* Insert write key and priority group */
 80004e6:	f400 60e0 	and.w	r0, r0, #1792	; 0x700
  reg_value &= ~((uint32_t)(SCB_AIRCR_VECTKEY_Msk | SCB_AIRCR_PRIGROUP_Msk)); /* clear bits to change               */
 80004ea:	400b      	ands	r3, r1
 80004ec:	f043 63bf 	orr.w	r3, r3, #100139008	; 0x5f80000
 80004f0:	f443 3300 	orr.w	r3, r3, #131072	; 0x20000
  reg_value  =  (reg_value                                   |
 80004f4:	4303      	orrs	r3, r0
  SCB->AIRCR =  reg_value;
 80004f6:	60d3      	str	r3, [r2, #12]
  /* Check the parameters */
  assert_param(IS_NVIC_PRIORITY_GROUP(PriorityGroup));
  
  /* Set the PRIGROUP[10:8] bits according to the PriorityGroup parameter value */
  NVIC_SetPriorityGrouping(PriorityGroup);
}
 80004f8:	4770      	bx	lr
 80004fa:	bf00      	nop
 80004fc:	e000ed00 	.word	0xe000ed00

08000500 <HAL_NVIC_SetPriority>:
  \details Reads the priority grouping field from the NVIC Interrupt Controller.
  \return                Priority grouping field (SCB->AIRCR [10:8] PRIGROUP field).
 */
__STATIC_INLINE uint32_t __NVIC_GetPriorityGrouping(void)
{
  return ((uint32_t)((SCB->AIRCR & SCB_AIRCR_PRIGROUP_Msk) >> SCB_AIRCR_PRIGROUP_Pos));
 8000500:	4b18      	ldr	r3, [pc, #96]	; (8000564 <HAL_NVIC_SetPriority+0x64>)
  *         This parameter can be a value between 0 and 15
  *         A lower priority value indicates a higher priority.          
  * @retval None
  */
void HAL_NVIC_SetPriority(IRQn_Type IRQn, uint32_t PreemptPriority, uint32_t SubPriority)
{ 
 8000502:	b430      	push	{r4, r5}
 8000504:	68db      	ldr	r3, [r3, #12]
 8000506:	f3c3 2302 	ubfx	r3, r3, #8, #3
{
  uint32_t PriorityGroupTmp = (PriorityGroup & (uint32_t)0x07UL);   /* only values 0..7 are used          */
  uint32_t PreemptPriorityBits;
  uint32_t SubPriorityBits;

  PreemptPriorityBits = ((7UL - PriorityGroupTmp) > (uint32_t)(__NVIC_PRIO_BITS)) ? (uint32_t)(__NVIC_PRIO_BITS) : (uint32_t)(7UL - PriorityGroupTmp);
 800050a:	f1c3 0507 	rsb	r5, r3, #7
 800050e:	2d04      	cmp	r5, #4
  SubPriorityBits     = ((PriorityGroupTmp + (uint32_t)(__NVIC_PRIO_BITS)) < (uint32_t)7UL) ? (uint32_t)0UL : (uint32_t)((PriorityGroupTmp - 7UL) + (uint32_t)(__NVIC_PRIO_BITS));
 8000510:	f103 0404 	add.w	r4, r3, #4
  PreemptPriorityBits = ((7UL - PriorityGroupTmp) > (uint32_t)(__NVIC_PRIO_BITS)) ? (uint32_t)(__NVIC_PRIO_BITS) : (uint32_t)(7UL - PriorityGroupTmp);
 8000514:	bf28      	it	cs
 8000516:	2504      	movcs	r5, #4
  SubPriorityBits     = ((PriorityGroupTmp + (uint32_t)(__NVIC_PRIO_BITS)) < (uint32_t)7UL) ? (uint32_t)0UL : (uint32_t)((PriorityGroupTmp - 7UL) + (uint32_t)(__NVIC_PRIO_BITS));
 8000518:	2c06      	cmp	r4, #6
 800051a:	d919      	bls.n	8000550 <HAL_NVIC_SetPriority+0x50>
 800051c:	f04f 34ff 	mov.w	r4, #4294967295
 8000520:	3b03      	subs	r3, #3
 8000522:	409c      	lsls	r4, r3
 8000524:	ea22 0404 	bic.w	r4, r2, r4

  return (
           ((PreemptPriority & (uint32_t)((1UL << (PreemptPriorityBits)) - 1UL)) << SubPriorityBits) |
 8000528:	f04f 32ff 	mov.w	r2, #4294967295
 800052c:	40aa      	lsls	r2, r5
 800052e:	ea21 0102 	bic.w	r1, r1, r2
 8000532:	fa01 f203 	lsl.w	r2, r1, r3
 8000536:	4322      	orrs	r2, r4
 8000538:	0112      	lsls	r2, r2, #4
  if ((int32_t)(IRQn) >= 0)
 800053a:	2800      	cmp	r0, #0
 800053c:	b2d2      	uxtb	r2, r2
 800053e:	db0a      	blt.n	8000556 <HAL_NVIC_SetPriority+0x56>
    NVIC->IP[((uint32_t)IRQn)]               = (uint8_t)((priority << (8U - __NVIC_PRIO_BITS)) & (uint32_t)0xFFUL);
 8000540:	f100 4060 	add.w	r0, r0, #3758096384	; 0xe0000000
 8000544:	f500 4061 	add.w	r0, r0, #57600	; 0xe100
 8000548:	f880 2300 	strb.w	r2, [r0, #768]	; 0x300
  assert_param(IS_NVIC_PREEMPTION_PRIORITY(PreemptPriority));
  
  prioritygroup = NVIC_GetPriorityGrouping();
  
  NVIC_SetPriority(IRQn, NVIC_EncodePriority(prioritygroup, PreemptPriority, SubPriority));
}
 800054c:	bc30      	pop	{r4, r5}
 800054e:	4770      	bx	lr
  SubPriorityBits     = ((PriorityGroupTmp + (uint32_t)(__NVIC_PRIO_BITS)) < (uint32_t)7UL) ? (uint32_t)0UL : (uint32_t)((PriorityGroupTmp - 7UL) + (uint32_t)(__NVIC_PRIO_BITS));
 8000550:	2400      	movs	r4, #0
 8000552:	4623      	mov	r3, r4
 8000554:	e7e8      	b.n	8000528 <HAL_NVIC_SetPriority+0x28>
    SCB->SHP[(((uint32_t)IRQn) & 0xFUL)-4UL] = (uint8_t)((priority << (8U - __NVIC_PRIO_BITS)) & (uint32_t)0xFFUL);
 8000556:	4b04      	ldr	r3, [pc, #16]	; (8000568 <HAL_NVIC_SetPriority+0x68>)
 8000558:	f000 000f 	and.w	r0, r0, #15
 800055c:	4403      	add	r3, r0
 800055e:	761a      	strb	r2, [r3, #24]
 8000560:	bc30      	pop	{r4, r5}
 8000562:	4770      	bx	lr
 8000564:	e000ed00 	.word	0xe000ed00
 8000568:	e000ecfc 	.word	0xe000ecfc

0800056c <HAL_SYSTICK_Config>:
           function <b>SysTick_Config</b> is not included. In this case, the file <b><i>device</i>.h</b>
           must contain a vendor-specific implementation of this function.
 */
__STATIC_INLINE uint32_t SysTick_Config(uint32_t ticks)
{
  if ((ticks - 1UL) > SysTick_LOAD_RELOAD_Msk)
 800056c:	3801      	subs	r0, #1
 800056e:	f1b0 7f80 	cmp.w	r0, #16777216	; 0x1000000
 8000572:	d20d      	bcs.n	8000590 <HAL_SYSTICK_Config+0x24>
  * @param  TicksNumb: Specifies the ticks Number of ticks between two interrupts.
  * @retval status:  - 0  Function succeeded.
  *                  - 1  Function failed.
  */
uint32_t HAL_SYSTICK_Config(uint32_t TicksNumb)
{
 8000574:	b430      	push	{r4, r5}
    SCB->SHP[(((uint32_t)IRQn) & 0xFUL)-4UL] = (uint8_t)((priority << (8U - __NVIC_PRIO_BITS)) & (uint32_t)0xFFUL);
 8000576:	25f0      	movs	r5, #240	; 0xf0
    return (1UL);                                                   /* Reload value impossible */
  }

  SysTick->LOAD  = (uint32_t)(ticks - 1UL);                         /* set reload register */
  NVIC_SetPriority (SysTick_IRQn, (1UL << __NVIC_PRIO_BITS) - 1UL); /* set Priority for Systick Interrupt */
  SysTick->VAL   = 0UL;                                             /* Load the SysTick Counter Value */
 8000578:	2200      	movs	r2, #0
  SysTick->CTRL  = SysTick_CTRL_CLKSOURCE_Msk |
 800057a:	2107      	movs	r1, #7
  SysTick->LOAD  = (uint32_t)(ticks - 1UL);                         /* set reload register */
 800057c:	4b05      	ldr	r3, [pc, #20]	; (8000594 <HAL_SYSTICK_Config+0x28>)
    SCB->SHP[(((uint32_t)IRQn) & 0xFUL)-4UL] = (uint8_t)((priority << (8U - __NVIC_PRIO_BITS)) & (uint32_t)0xFFUL);
 800057e:	4c06      	ldr	r4, [pc, #24]	; (8000598 <HAL_SYSTICK_Config+0x2c>)
  SysTick->LOAD  = (uint32_t)(ticks - 1UL);                         /* set reload register */
 8000580:	6058      	str	r0, [r3, #4]
    SCB->SHP[(((uint32_t)IRQn) & 0xFUL)-4UL] = (uint8_t)((priority << (8U - __NVIC_PRIO_BITS)) & (uint32_t)0xFFUL);
 8000582:	f884 5023 	strb.w	r5, [r4, #35]	; 0x23
                   SysTick_CTRL_TICKINT_Msk   |
                   SysTick_CTRL_ENABLE_Msk;                         /* Enable SysTick IRQ and SysTick Timer */
  return (0UL);                                                     /* Function successful */
 8000586:	4610      	mov	r0, r2
   return SysTick_Config(TicksNumb);
}
 8000588:	bc30      	pop	{r4, r5}
  SysTick->VAL   = 0UL;                                             /* Load the SysTick Counter Value */
 800058a:	609a      	str	r2, [r3, #8]
  SysTick->CTRL  = SysTick_CTRL_CLKSOURCE_Msk |
 800058c:	6019      	str	r1, [r3, #0]
 800058e:	4770      	bx	lr
    return (1UL);                                                   /* Reload value impossible */
 8000590:	2001      	movs	r0, #1
 8000592:	4770      	bx	lr
 8000594:	e000e010 	.word	0xe000e010
 8000598:	e000ed00 	.word	0xe000ed00

0800059c <HAL_GPIO_Init>:
  assert_param(IS_GPIO_ALL_INSTANCE(GPIOx));
  assert_param(IS_GPIO_PIN(GPIO_Init->Pin));
  assert_param(IS_GPIO_MODE(GPIO_Init->Mode));

  /* Configure the port pins */
  while (((GPIO_Init->Pin) >> position) != 0x00u)
 800059c:	680a      	ldr	r2, [r1, #0]
 800059e:	2a00      	cmp	r2, #0
 80005a0:	f000 80db 	beq.w	800075a <HAL_GPIO_Init+0x1be>
{
 80005a4:	e92d 4ff0 	stmdb	sp!, {r4, r5, r6, r7, r8, r9, sl, fp, lr}
  uint32_t config = 0x00u;
 80005a8:	f04f 0a00 	mov.w	sl, #0
{
 80005ac:	b085      	sub	sp, #20
  uint32_t position = 0x00u;
 80005ae:	4655      	mov	r5, sl
      /*--------------------- EXTI Mode Configuration ------------------------*/
      /* Configure the External Interrupt or event for the current IO */
      if ((GPIO_Init->Mode & EXTI_MODE) == EXTI_MODE)
      {
        /* Enable AFIO Clock */
        __HAL_RCC_AFIO_CLK_ENABLE();
 80005b0:	f8df c1d0 	ldr.w	ip, [pc, #464]	; 8000784 <HAL_GPIO_Init+0x1e8>
        temp = AFIO->EXTICR[position >> 2u];
        CLEAR_BIT(temp, (0x0Fu) << (4u * (position & 0x03u)));
        SET_BIT(temp, (GPIO_GET_INDEX(GPIOx)) << (4u * (position & 0x03u)));
 80005b4:	f8df e1d0 	ldr.w	lr, [pc, #464]	; 8000788 <HAL_GPIO_Init+0x1ec>
        {
          SET_BIT(EXTI->FTSR, iocurrent);
        }
        else
        {
          CLEAR_BIT(EXTI->FTSR, iocurrent);
 80005b8:	4f6d      	ldr	r7, [pc, #436]	; (8000770 <HAL_GPIO_Init+0x1d4>)
        SET_BIT(temp, (GPIO_GET_INDEX(GPIOx)) << (4u * (position & 0x03u)));
 80005ba:	f8df 81d0 	ldr.w	r8, [pc, #464]	; 800078c <HAL_GPIO_Init+0x1f0>
 80005be:	e003      	b.n	80005c8 <HAL_GPIO_Init+0x2c>
        }
      }
    }

	position++;
 80005c0:	3501      	adds	r5, #1
  while (((GPIO_Init->Pin) >> position) != 0x00u)
 80005c2:	fa32 f305 	lsrs.w	r3, r2, r5
 80005c6:	d078      	beq.n	80006ba <HAL_GPIO_Init+0x11e>
    ioposition = (0x01uL << position);
 80005c8:	2301      	movs	r3, #1
 80005ca:	40ab      	lsls	r3, r5
    iocurrent = (uint32_t)(GPIO_Init->Pin) & ioposition;
 80005cc:	ea02 0403 	and.w	r4, r2, r3
    if (iocurrent == ioposition)
 80005d0:	42a3      	cmp	r3, r4
 80005d2:	d1f5      	bne.n	80005c0 <HAL_GPIO_Init+0x24>
      switch (GPIO_Init->Mode)
 80005d4:	684a      	ldr	r2, [r1, #4]
 80005d6:	2a12      	cmp	r2, #18
 80005d8:	f000 809e 	beq.w	8000718 <HAL_GPIO_Init+0x17c>
 80005dc:	f200 8087 	bhi.w	80006ee <HAL_GPIO_Init+0x152>
 80005e0:	2a02      	cmp	r2, #2
 80005e2:	f000 809d 	beq.w	8000720 <HAL_GPIO_Init+0x184>
 80005e6:	d97c      	bls.n	80006e2 <HAL_GPIO_Init+0x146>
 80005e8:	2a03      	cmp	r2, #3
 80005ea:	d069      	beq.n	80006c0 <HAL_GPIO_Init+0x124>
 80005ec:	2a11      	cmp	r2, #17
 80005ee:	d102      	bne.n	80005f6 <HAL_GPIO_Init+0x5a>
          config = GPIO_Init->Speed + GPIO_CR_CNF_GP_OUTPUT_OD;
 80005f0:	68cb      	ldr	r3, [r1, #12]
 80005f2:	f103 0a04 	add.w	sl, r3, #4
      configregister = (iocurrent < GPIO_PIN_8) ? &GPIOx->CRL     : &GPIOx->CRH;
 80005f6:	2cff      	cmp	r4, #255	; 0xff
 80005f8:	d866      	bhi.n	80006c8 <HAL_GPIO_Init+0x12c>
 80005fa:	4681      	mov	r9, r0
 80005fc:	6803      	ldr	r3, [r0, #0]
 80005fe:	00aa      	lsls	r2, r5, #2
      MODIFY_REG((*configregister), ((GPIO_CRL_MODE0 | GPIO_CRL_CNF0) << registeroffset), (config << registeroffset));
 8000600:	260f      	movs	r6, #15
 8000602:	fa06 fb02 	lsl.w	fp, r6, r2
 8000606:	ea23 030b 	bic.w	r3, r3, fp
 800060a:	fa0a f202 	lsl.w	r2, sl, r2
 800060e:	4313      	orrs	r3, r2
 8000610:	f8c9 3000 	str.w	r3, [r9]
      if ((GPIO_Init->Mode & EXTI_MODE) == EXTI_MODE)
 8000614:	684a      	ldr	r2, [r1, #4]
 8000616:	00d3      	lsls	r3, r2, #3
 8000618:	d561      	bpl.n	80006de <HAL_GPIO_Init+0x142>
        __HAL_RCC_AFIO_CLK_ENABLE();
 800061a:	f8dc 9018 	ldr.w	r9, [ip, #24]
 800061e:	f025 0303 	bic.w	r3, r5, #3
 8000622:	f049 0901 	orr.w	r9, r9, #1
 8000626:	f8cc 9018 	str.w	r9, [ip, #24]
 800062a:	f8dc 9018 	ldr.w	r9, [ip, #24]
 800062e:	f103 4380 	add.w	r3, r3, #1073741824	; 0x40000000
 8000632:	f009 0901 	and.w	r9, r9, #1
 8000636:	f8cd 900c 	str.w	r9, [sp, #12]
 800063a:	f503 3380 	add.w	r3, r3, #65536	; 0x10000
        CLEAR_BIT(temp, (0x0Fu) << (4u * (position & 0x03u)));
 800063e:	f005 0903 	and.w	r9, r5, #3
        __HAL_RCC_AFIO_CLK_ENABLE();
 8000642:	f8dd b00c 	ldr.w	fp, [sp, #12]
        CLEAR_BIT(temp, (0x0Fu) << (4u * (position & 0x03u)));
 8000646:	ea4f 0989 	mov.w	r9, r9, lsl #2
        temp = AFIO->EXTICR[position >> 2u];
 800064a:	f8d3 b008 	ldr.w	fp, [r3, #8]
        CLEAR_BIT(temp, (0x0Fu) << (4u * (position & 0x03u)));
 800064e:	fa06 f609 	lsl.w	r6, r6, r9
 8000652:	ea2b 0606 	bic.w	r6, fp, r6
        SET_BIT(temp, (GPIO_GET_INDEX(GPIOx)) << (4u * (position & 0x03u)));
 8000656:	4570      	cmp	r0, lr
        CLEAR_BIT(temp, (0x0Fu) << (4u * (position & 0x03u)));
 8000658:	9601      	str	r6, [sp, #4]
        SET_BIT(temp, (GPIO_GET_INDEX(GPIOx)) << (4u * (position & 0x03u)));
 800065a:	d011      	beq.n	8000680 <HAL_GPIO_Init+0xe4>
 800065c:	4540      	cmp	r0, r8
 800065e:	d063      	beq.n	8000728 <HAL_GPIO_Init+0x18c>
 8000660:	4e44      	ldr	r6, [pc, #272]	; (8000774 <HAL_GPIO_Init+0x1d8>)
 8000662:	42b0      	cmp	r0, r6
 8000664:	d07a      	beq.n	800075c <HAL_GPIO_Init+0x1c0>
 8000666:	4e44      	ldr	r6, [pc, #272]	; (8000778 <HAL_GPIO_Init+0x1dc>)
 8000668:	42b0      	cmp	r0, r6
 800066a:	bf0c      	ite	eq
 800066c:	f04f 0b03 	moveq.w	fp, #3
 8000670:	f04f 0b04 	movne.w	fp, #4
 8000674:	9e01      	ldr	r6, [sp, #4]
 8000676:	fa0b f909 	lsl.w	r9, fp, r9
 800067a:	ea46 0609 	orr.w	r6, r6, r9
 800067e:	9601      	str	r6, [sp, #4]
        AFIO->EXTICR[position >> 2u] = temp;
 8000680:	609e      	str	r6, [r3, #8]
          SET_BIT(EXTI->IMR, iocurrent);
 8000682:	683b      	ldr	r3, [r7, #0]
        if ((GPIO_Init->Mode & GPIO_MODE_IT) == GPIO_MODE_IT)
 8000684:	03d6      	lsls	r6, r2, #15
          SET_BIT(EXTI->IMR, iocurrent);
 8000686:	bf4c      	ite	mi
 8000688:	4323      	orrmi	r3, r4
          CLEAR_BIT(EXTI->IMR, iocurrent);
 800068a:	43a3      	bicpl	r3, r4
 800068c:	603b      	str	r3, [r7, #0]
          SET_BIT(EXTI->EMR, iocurrent);
 800068e:	687b      	ldr	r3, [r7, #4]
        if ((GPIO_Init->Mode & GPIO_MODE_EVT) == GPIO_MODE_EVT)
 8000690:	0396      	lsls	r6, r2, #14
          SET_BIT(EXTI->EMR, iocurrent);
 8000692:	bf4c      	ite	mi
 8000694:	4323      	orrmi	r3, r4
          CLEAR_BIT(EXTI->EMR, iocurrent);
 8000696:	43a3      	bicpl	r3, r4
 8000698:	607b      	str	r3, [r7, #4]
          SET_BIT(EXTI->RTSR, iocurrent);
 800069a:	68bb      	ldr	r3, [r7, #8]
        if ((GPIO_Init->Mode & RISING_EDGE) == RISING_EDGE)
 800069c:	02d6      	lsls	r6, r2, #11
          SET_BIT(EXTI->RTSR, iocurrent);
 800069e:	bf4c      	ite	mi
 80006a0:	4323      	orrmi	r3, r4
          CLEAR_BIT(EXTI->RTSR, iocurrent);
 80006a2:	43a3      	bicpl	r3, r4
 80006a4:	60bb      	str	r3, [r7, #8]
        if ((GPIO_Init->Mode & FALLING_EDGE) == FALLING_EDGE)
 80006a6:	0292      	lsls	r2, r2, #10
          SET_BIT(EXTI->FTSR, iocurrent);
 80006a8:	68fb      	ldr	r3, [r7, #12]
        if ((GPIO_Init->Mode & FALLING_EDGE) == FALLING_EDGE)
 80006aa:	d515      	bpl.n	80006d8 <HAL_GPIO_Init+0x13c>
          SET_BIT(EXTI->FTSR, iocurrent);
 80006ac:	431c      	orrs	r4, r3
 80006ae:	60fc      	str	r4, [r7, #12]
 80006b0:	680a      	ldr	r2, [r1, #0]
	position++;
 80006b2:	3501      	adds	r5, #1
  while (((GPIO_Init->Pin) >> position) != 0x00u)
 80006b4:	fa32 f305 	lsrs.w	r3, r2, r5
 80006b8:	d186      	bne.n	80005c8 <HAL_GPIO_Init+0x2c>
  }
}
 80006ba:	b005      	add	sp, #20
 80006bc:	e8bd 8ff0 	ldmia.w	sp!, {r4, r5, r6, r7, r8, r9, sl, fp, pc}
      configregister = (iocurrent < GPIO_PIN_8) ? &GPIOx->CRL     : &GPIOx->CRH;
 80006c0:	2cff      	cmp	r4, #255	; 0xff
          config = GPIO_CR_MODE_INPUT + GPIO_CR_CNF_ANALOG;
 80006c2:	f04f 0a00 	mov.w	sl, #0
      configregister = (iocurrent < GPIO_PIN_8) ? &GPIOx->CRL     : &GPIOx->CRH;
 80006c6:	d998      	bls.n	80005fa <HAL_GPIO_Init+0x5e>
 80006c8:	f105 4280 	add.w	r2, r5, #1073741824	; 0x40000000
 80006cc:	3a08      	subs	r2, #8
 80006ce:	6843      	ldr	r3, [r0, #4]
 80006d0:	0092      	lsls	r2, r2, #2
 80006d2:	f100 0904 	add.w	r9, r0, #4
 80006d6:	e793      	b.n	8000600 <HAL_GPIO_Init+0x64>
          CLEAR_BIT(EXTI->FTSR, iocurrent);
 80006d8:	ea23 0404 	bic.w	r4, r3, r4
 80006dc:	60fc      	str	r4, [r7, #12]
 80006de:	680a      	ldr	r2, [r1, #0]
 80006e0:	e76e      	b.n	80005c0 <HAL_GPIO_Init+0x24>
      switch (GPIO_Init->Mode)
 80006e2:	b1a2      	cbz	r2, 800070e <HAL_GPIO_Init+0x172>
 80006e4:	2a01      	cmp	r2, #1
 80006e6:	d186      	bne.n	80005f6 <HAL_GPIO_Init+0x5a>
          config = GPIO_Init->Speed + GPIO_CR_CNF_GP_OUTPUT_PP;
 80006e8:	f8d1 a00c 	ldr.w	sl, [r1, #12]
          break;
 80006ec:	e783      	b.n	80005f6 <HAL_GPIO_Init+0x5a>
      switch (GPIO_Init->Mode)
 80006ee:	4e23      	ldr	r6, [pc, #140]	; (800077c <HAL_GPIO_Init+0x1e0>)
 80006f0:	42b2      	cmp	r2, r6
 80006f2:	d00c      	beq.n	800070e <HAL_GPIO_Init+0x172>
 80006f4:	d920      	bls.n	8000738 <HAL_GPIO_Init+0x19c>
 80006f6:	4e22      	ldr	r6, [pc, #136]	; (8000780 <HAL_GPIO_Init+0x1e4>)
 80006f8:	42b2      	cmp	r2, r6
 80006fa:	d008      	beq.n	800070e <HAL_GPIO_Init+0x172>
 80006fc:	f506 3680 	add.w	r6, r6, #65536	; 0x10000
 8000700:	42b2      	cmp	r2, r6
 8000702:	d004      	beq.n	800070e <HAL_GPIO_Init+0x172>
 8000704:	f5a6 1680 	sub.w	r6, r6, #1048576	; 0x100000
 8000708:	42b2      	cmp	r2, r6
 800070a:	f47f af74 	bne.w	80005f6 <HAL_GPIO_Init+0x5a>
          if (GPIO_Init->Pull == GPIO_NOPULL)
 800070e:	688a      	ldr	r2, [r1, #8]
 8000710:	b9e2      	cbnz	r2, 800074c <HAL_GPIO_Init+0x1b0>
            config = GPIO_CR_MODE_INPUT + GPIO_CR_CNF_INPUT_FLOATING;
 8000712:	f04f 0a04 	mov.w	sl, #4
 8000716:	e76e      	b.n	80005f6 <HAL_GPIO_Init+0x5a>
          config = GPIO_Init->Speed + GPIO_CR_CNF_AF_OUTPUT_OD;
 8000718:	68cb      	ldr	r3, [r1, #12]
 800071a:	f103 0a0c 	add.w	sl, r3, #12
          break;
 800071e:	e76a      	b.n	80005f6 <HAL_GPIO_Init+0x5a>
          config = GPIO_Init->Speed + GPIO_CR_CNF_AF_OUTPUT_PP;
 8000720:	68cb      	ldr	r3, [r1, #12]
 8000722:	f103 0a08 	add.w	sl, r3, #8
          break;
 8000726:	e766      	b.n	80005f6 <HAL_GPIO_Init+0x5a>
 8000728:	f04f 0b01 	mov.w	fp, #1
 800072c:	fa0b f909 	lsl.w	r9, fp, r9
 8000730:	ea46 0609 	orr.w	r6, r6, r9
 8000734:	9601      	str	r6, [sp, #4]
 8000736:	e7a3      	b.n	8000680 <HAL_GPIO_Init+0xe4>
      switch (GPIO_Init->Mode)
 8000738:	f5a6 1680 	sub.w	r6, r6, #1048576	; 0x100000
 800073c:	42b2      	cmp	r2, r6
 800073e:	d0e6      	beq.n	800070e <HAL_GPIO_Init+0x172>
 8000740:	f506 3680 	add.w	r6, r6, #65536	; 0x10000
 8000744:	42b2      	cmp	r2, r6
 8000746:	f47f af56 	bne.w	80005f6 <HAL_GPIO_Init+0x5a>
 800074a:	e7e0      	b.n	800070e <HAL_GPIO_Init+0x172>
          else if (GPIO_Init->Pull == GPIO_PULLUP)
 800074c:	2a01      	cmp	r2, #1
            GPIOx->BSRR = ioposition;
 800074e:	bf0c      	ite	eq
 8000750:	6103      	streq	r3, [r0, #16]
            GPIOx->BRR = ioposition;
 8000752:	6143      	strne	r3, [r0, #20]
            config = GPIO_CR_MODE_INPUT + GPIO_CR_CNF_INPUT_PU_PD;
 8000754:	f04f 0a08 	mov.w	sl, #8
 8000758:	e74d      	b.n	80005f6 <HAL_GPIO_Init+0x5a>
 800075a:	4770      	bx	lr
 800075c:	f04f 0b02 	mov.w	fp, #2
 8000760:	9e01      	ldr	r6, [sp, #4]
 8000762:	fa0b f909 	lsl.w	r9, fp, r9
 8000766:	ea46 0609 	orr.w	r6, r6, r9
 800076a:	9601      	str	r6, [sp, #4]
 800076c:	e788      	b.n	8000680 <HAL_GPIO_Init+0xe4>
 800076e:	bf00      	nop
 8000770:	40010400 	.word	0x40010400
 8000774:	40011000 	.word	0x40011000
 8000778:	40011400 	.word	0x40011400
 800077c:	10210000 	.word	0x10210000
 8000780:	10310000 	.word	0x10310000
 8000784:	40021000 	.word	0x40021000
 8000788:	40010800 	.word	0x40010800
 800078c:	40010c00 	.word	0x40010c00

08000790 <HAL_GPIO_ReadPin>:
  GPIO_PinState bitstatus;

  /* Check the parameters */
  assert_param(IS_GPIO_PIN(GPIO_Pin));

  if ((GPIOx->IDR & GPIO_Pin) != (uint32_t)GPIO_PIN_RESET)
 8000790:	6883      	ldr	r3, [r0, #8]
 8000792:	4219      	tst	r1, r3
  else
  {
    bitstatus = GPIO_PIN_RESET;
  }
  return bitstatus;
}
 8000794:	bf14      	ite	ne
 8000796:	2001      	movne	r0, #1
 8000798:	2000      	moveq	r0, #0
 800079a:	4770      	bx	lr

0800079c <HAL_GPIO_WritePin>:
{
  /* Check the parameters */
  assert_param(IS_GPIO_PIN(GPIO_Pin));
  assert_param(IS_GPIO_PIN_ACTION(PinState));

  if (PinState != GPIO_PIN_RESET)
 800079c:	b902      	cbnz	r2, 80007a0 <HAL_GPIO_WritePin+0x4>
  {
    GPIOx->BSRR = GPIO_Pin;
  }
  else
  {
    GPIOx->BSRR = (uint32_t)GPIO_Pin << 16u;
 800079e:	0409      	lsls	r1, r1, #16
 80007a0:	6101      	str	r1, [r0, #16]
  }
}
 80007a2:	4770      	bx	lr

080007a4 <HAL_RCC_OscConfig>:
{
  uint32_t tickstart;
  uint32_t pll_config;

  /* Check Null pointer */
  if (RCC_OscInitStruct == NULL)
 80007a4:	2800      	cmp	r0, #0
 80007a6:	f000 8155 	beq.w	8000a54 <HAL_RCC_OscConfig+0x2b0>
{
 80007aa:	e92d 41f0 	stmdb	sp!, {r4, r5, r6, r7, r8, lr}

  /* Check the parameters */
  assert_param(IS_RCC_OSCILLATORTYPE(RCC_OscInitStruct->OscillatorType));

  /*------------------------------- HSE Configuration ------------------------*/
  if (((RCC_OscInitStruct->OscillatorType) & RCC_OSCILLATORTYPE_HSE) == RCC_OSCILLATORTYPE_HSE)
 80007ae:	6803      	ldr	r3, [r0, #0]
{
 80007b0:	b082      	sub	sp, #8
  if (((RCC_OscInitStruct->OscillatorType) & RCC_OSCILLATORTYPE_HSE) == RCC_OSCILLATORTYPE_HSE)
 80007b2:	07dd      	lsls	r5, r3, #31
 80007b4:	4604      	mov	r4, r0
 80007b6:	d535      	bpl.n	8000824 <HAL_RCC_OscConfig+0x80>
  {
    /* Check the parameters */
    assert_param(IS_RCC_HSE(RCC_OscInitStruct->HSEState));

    /* When the HSE is used as system clock or clock source for PLL in these cases it is not allowed to be disabled */
    if ((__HAL_RCC_GET_SYSCLK_SOURCE() == RCC_SYSCLKSOURCE_STATUS_HSE)
 80007b8:	49a8      	ldr	r1, [pc, #672]	; (8000a5c <HAL_RCC_OscConfig+0x2b8>)
 80007ba:	684a      	ldr	r2, [r1, #4]
 80007bc:	f002 020c 	and.w	r2, r2, #12
 80007c0:	2a04      	cmp	r2, #4
 80007c2:	f000 8105 	beq.w	80009d0 <HAL_RCC_OscConfig+0x22c>
        || ((__HAL_RCC_GET_SYSCLK_SOURCE() == RCC_SYSCLKSOURCE_STATUS_PLLCLK) && (__HAL_RCC_GET_PLL_OSCSOURCE() == RCC_PLLSOURCE_HSE)))
 80007c6:	684a      	ldr	r2, [r1, #4]
 80007c8:	f002 020c 	and.w	r2, r2, #12
 80007cc:	2a08      	cmp	r2, #8
 80007ce:	f000 80fb 	beq.w	80009c8 <HAL_RCC_OscConfig+0x224>
      }
    }
    else
    {
      /* Set the new HSE configuration ---------------------------------------*/
      __HAL_RCC_HSE_CONFIG(RCC_OscInitStruct->HSEState);
 80007d2:	6863      	ldr	r3, [r4, #4]
 80007d4:	f5b3 3f80 	cmp.w	r3, #65536	; 0x10000
 80007d8:	d010      	beq.n	80007fc <HAL_RCC_OscConfig+0x58>
 80007da:	2b00      	cmp	r3, #0
 80007dc:	f000 8120 	beq.w	8000a20 <HAL_RCC_OscConfig+0x27c>
 80007e0:	f5b3 2fa0 	cmp.w	r3, #327680	; 0x50000
 80007e4:	f000 8178 	beq.w	8000ad8 <HAL_RCC_OscConfig+0x334>
 80007e8:	4b9c      	ldr	r3, [pc, #624]	; (8000a5c <HAL_RCC_OscConfig+0x2b8>)
 80007ea:	681a      	ldr	r2, [r3, #0]
 80007ec:	f422 3280 	bic.w	r2, r2, #65536	; 0x10000
 80007f0:	601a      	str	r2, [r3, #0]
 80007f2:	681a      	ldr	r2, [r3, #0]
 80007f4:	f422 2280 	bic.w	r2, r2, #262144	; 0x40000
 80007f8:	601a      	str	r2, [r3, #0]
 80007fa:	e004      	b.n	8000806 <HAL_RCC_OscConfig+0x62>
 80007fc:	4a97      	ldr	r2, [pc, #604]	; (8000a5c <HAL_RCC_OscConfig+0x2b8>)
 80007fe:	6813      	ldr	r3, [r2, #0]
 8000800:	f443 3380 	orr.w	r3, r3, #65536	; 0x10000
 8000804:	6013      	str	r3, [r2, #0]

      /* Check the HSE State */
      if (RCC_OscInitStruct->HSEState != RCC_HSE_OFF)
      {
        /* Get Start Tick */
        tickstart = HAL_GetTick();
 8000806:	f7ff fe63 	bl	80004d0 <HAL_GetTick>

        /* Wait till HSE is ready */
        while (__HAL_RCC_GET_FLAG(RCC_FLAG_HSERDY) == RESET)
 800080a:	4d94      	ldr	r5, [pc, #592]	; (8000a5c <HAL_RCC_OscConfig+0x2b8>)
        tickstart = HAL_GetTick();
 800080c:	4606      	mov	r6, r0
        while (__HAL_RCC_GET_FLAG(RCC_FLAG_HSERDY) == RESET)
 800080e:	e005      	b.n	800081c <HAL_RCC_OscConfig+0x78>
        {
          if ((HAL_GetTick() - tickstart) > HSE_TIMEOUT_VALUE)
 8000810:	f7ff fe5e 	bl	80004d0 <HAL_GetTick>
 8000814:	1b80      	subs	r0, r0, r6
 8000816:	2864      	cmp	r0, #100	; 0x64
 8000818:	f200 80f5 	bhi.w	8000a06 <HAL_RCC_OscConfig+0x262>
        while (__HAL_RCC_GET_FLAG(RCC_FLAG_HSERDY) == RESET)
 800081c:	682b      	ldr	r3, [r5, #0]
 800081e:	039a      	lsls	r2, r3, #14
 8000820:	d5f6      	bpl.n	8000810 <HAL_RCC_OscConfig+0x6c>
 8000822:	6823      	ldr	r3, [r4, #0]
        }
      }
    }
  }
  /*----------------------------- HSI Configuration --------------------------*/
  if (((RCC_OscInitStruct->OscillatorType) & RCC_OSCILLATORTYPE_HSI) == RCC_OSCILLATORTYPE_HSI)
 8000824:	079f      	lsls	r7, r3, #30
 8000826:	d44d      	bmi.n	80008c4 <HAL_RCC_OscConfig+0x120>
        }
      }
    }
  }
  /*------------------------------ LSI Configuration -------------------------*/
  if (((RCC_OscInitStruct->OscillatorType) & RCC_OSCILLATORTYPE_LSI) == RCC_OSCILLATORTYPE_LSI)
 8000828:	071a      	lsls	r2, r3, #28
 800082a:	d522      	bpl.n	8000872 <HAL_RCC_OscConfig+0xce>
  {
    /* Check the parameters */
    assert_param(IS_RCC_LSI(RCC_OscInitStruct->LSIState));

    /* Check the LSI State */
    if (RCC_OscInitStruct->LSIState != RCC_LSI_OFF)
 800082c:	69a3      	ldr	r3, [r4, #24]
 800082e:	2b00      	cmp	r3, #0
 8000830:	f000 80ba 	beq.w	80009a8 <HAL_RCC_OscConfig+0x204>
    {
      /* Enable the Internal Low Speed oscillator (LSI). */
      __HAL_RCC_LSI_ENABLE();
 8000834:	2201      	movs	r2, #1
 8000836:	4b8a      	ldr	r3, [pc, #552]	; (8000a60 <HAL_RCC_OscConfig+0x2bc>)

      /* Get Start Tick */
      tickstart = HAL_GetTick();

      /* Wait till LSI is ready */
      while (__HAL_RCC_GET_FLAG(RCC_FLAG_LSIRDY) == RESET)
 8000838:	4d88      	ldr	r5, [pc, #544]	; (8000a5c <HAL_RCC_OscConfig+0x2b8>)
      __HAL_RCC_LSI_ENABLE();
 800083a:	601a      	str	r2, [r3, #0]
      tickstart = HAL_GetTick();
 800083c:	f7ff fe48 	bl	80004d0 <HAL_GetTick>
 8000840:	4606      	mov	r6, r0
      while (__HAL_RCC_GET_FLAG(RCC_FLAG_LSIRDY) == RESET)
 8000842:	e005      	b.n	8000850 <HAL_RCC_OscConfig+0xac>
      {
        if ((HAL_GetTick() - tickstart) > LSI_TIMEOUT_VALUE)
 8000844:	f7ff fe44 	bl	80004d0 <HAL_GetTick>
 8000848:	1b80      	subs	r0, r0, r6
 800084a:	2802      	cmp	r0, #2
 800084c:	f200 80db 	bhi.w	8000a06 <HAL_RCC_OscConfig+0x262>
      while (__HAL_RCC_GET_FLAG(RCC_FLAG_LSIRDY) == RESET)
 8000850:	6a6b      	ldr	r3, [r5, #36]	; 0x24
 8000852:	079b      	lsls	r3, r3, #30
 8000854:	d5f6      	bpl.n	8000844 <HAL_RCC_OscConfig+0xa0>
  * @param  mdelay: specifies the delay time length, in milliseconds.
  * @retval None
  */
static void RCC_Delay(uint32_t mdelay)
{
  __IO uint32_t Delay = mdelay * (SystemCoreClock / 8U / 1000U);
 8000856:	4b83      	ldr	r3, [pc, #524]	; (8000a64 <HAL_RCC_OscConfig+0x2c0>)
 8000858:	4a83      	ldr	r2, [pc, #524]	; (8000a68 <HAL_RCC_OscConfig+0x2c4>)
 800085a:	681b      	ldr	r3, [r3, #0]
 800085c:	fba2 2303 	umull	r2, r3, r2, r3
 8000860:	0a5b      	lsrs	r3, r3, #9
 8000862:	9301      	str	r3, [sp, #4]
  do
  {
    __NOP();
 8000864:	bf00      	nop
  }
  while (Delay --);
 8000866:	9b01      	ldr	r3, [sp, #4]
 8000868:	1e5a      	subs	r2, r3, #1
 800086a:	9201      	str	r2, [sp, #4]
 800086c:	2b00      	cmp	r3, #0
 800086e:	d1f9      	bne.n	8000864 <HAL_RCC_OscConfig+0xc0>
 8000870:	6823      	ldr	r3, [r4, #0]
  if (((RCC_OscInitStruct->OscillatorType) & RCC_OSCILLATORTYPE_LSE) == RCC_OSCILLATORTYPE_LSE)
 8000872:	075d      	lsls	r5, r3, #29
 8000874:	d569      	bpl.n	800094a <HAL_RCC_OscConfig+0x1a6>
    if (__HAL_RCC_PWR_IS_CLK_DISABLED())
 8000876:	4b79      	ldr	r3, [pc, #484]	; (8000a5c <HAL_RCC_OscConfig+0x2b8>)
 8000878:	69da      	ldr	r2, [r3, #28]
 800087a:	00d0      	lsls	r0, r2, #3
 800087c:	f100 80ec 	bmi.w	8000a58 <HAL_RCC_OscConfig+0x2b4>
      pwrclkchanged = SET;
 8000880:	2501      	movs	r5, #1
      __HAL_RCC_PWR_CLK_ENABLE();
 8000882:	69da      	ldr	r2, [r3, #28]
 8000884:	f042 5280 	orr.w	r2, r2, #268435456	; 0x10000000
 8000888:	61da      	str	r2, [r3, #28]
 800088a:	69db      	ldr	r3, [r3, #28]
 800088c:	f003 5380 	and.w	r3, r3, #268435456	; 0x10000000
 8000890:	9300      	str	r3, [sp, #0]
 8000892:	9b00      	ldr	r3, [sp, #0]
    if (HAL_IS_BIT_CLR(PWR->CR, PWR_CR_DBP))
 8000894:	4b75      	ldr	r3, [pc, #468]	; (8000a6c <HAL_RCC_OscConfig+0x2c8>)
 8000896:	681a      	ldr	r2, [r3, #0]
 8000898:	05d1      	lsls	r1, r2, #23
 800089a:	f140 80a3 	bpl.w	80009e4 <HAL_RCC_OscConfig+0x240>
    __HAL_RCC_LSE_CONFIG(RCC_OscInitStruct->LSEState);
 800089e:	68e3      	ldr	r3, [r4, #12]
 80008a0:	2b01      	cmp	r3, #1
 80008a2:	d037      	beq.n	8000914 <HAL_RCC_OscConfig+0x170>
 80008a4:	2b00      	cmp	r3, #0
 80008a6:	f000 80e7 	beq.w	8000a78 <HAL_RCC_OscConfig+0x2d4>
 80008aa:	2b05      	cmp	r3, #5
 80008ac:	4b6b      	ldr	r3, [pc, #428]	; (8000a5c <HAL_RCC_OscConfig+0x2b8>)
 80008ae:	6a1a      	ldr	r2, [r3, #32]
 80008b0:	f000 811f 	beq.w	8000af2 <HAL_RCC_OscConfig+0x34e>
 80008b4:	f022 0201 	bic.w	r2, r2, #1
 80008b8:	621a      	str	r2, [r3, #32]
 80008ba:	6a1a      	ldr	r2, [r3, #32]
 80008bc:	f022 0204 	bic.w	r2, r2, #4
 80008c0:	621a      	str	r2, [r3, #32]
 80008c2:	e02c      	b.n	800091e <HAL_RCC_OscConfig+0x17a>
    if ((__HAL_RCC_GET_SYSCLK_SOURCE() == RCC_SYSCLKSOURCE_STATUS_HSI)
 80008c4:	4a65      	ldr	r2, [pc, #404]	; (8000a5c <HAL_RCC_OscConfig+0x2b8>)
 80008c6:	6851      	ldr	r1, [r2, #4]
 80008c8:	f011 0f0c 	tst.w	r1, #12
 80008cc:	d061      	beq.n	8000992 <HAL_RCC_OscConfig+0x1ee>
        || ((__HAL_RCC_GET_SYSCLK_SOURCE() == RCC_SYSCLKSOURCE_STATUS_PLLCLK) && (__HAL_RCC_GET_PLL_OSCSOURCE() == RCC_PLLSOURCE_HSI_DIV2)))
 80008ce:	6851      	ldr	r1, [r2, #4]
 80008d0:	f001 010c 	and.w	r1, r1, #12
 80008d4:	2908      	cmp	r1, #8
 80008d6:	d059      	beq.n	800098c <HAL_RCC_OscConfig+0x1e8>
      if (RCC_OscInitStruct->HSIState != RCC_HSI_OFF)
 80008d8:	6923      	ldr	r3, [r4, #16]
 80008da:	2b00      	cmp	r3, #0
 80008dc:	f000 80eb 	beq.w	8000ab6 <HAL_RCC_OscConfig+0x312>
        __HAL_RCC_HSI_ENABLE();
 80008e0:	2201      	movs	r2, #1
 80008e2:	4b63      	ldr	r3, [pc, #396]	; (8000a70 <HAL_RCC_OscConfig+0x2cc>)
        while (__HAL_RCC_GET_FLAG(RCC_FLAG_HSIRDY) == RESET)
 80008e4:	4d5d      	ldr	r5, [pc, #372]	; (8000a5c <HAL_RCC_OscConfig+0x2b8>)
        __HAL_RCC_HSI_ENABLE();
 80008e6:	601a      	str	r2, [r3, #0]
        tickstart = HAL_GetTick();
 80008e8:	f7ff fdf2 	bl	80004d0 <HAL_GetTick>
 80008ec:	4606      	mov	r6, r0
        while (__HAL_RCC_GET_FLAG(RCC_FLAG_HSIRDY) == RESET)
 80008ee:	e005      	b.n	80008fc <HAL_RCC_OscConfig+0x158>
          if ((HAL_GetTick() - tickstart) > HSI_TIMEOUT_VALUE)
 80008f0:	f7ff fdee 	bl	80004d0 <HAL_GetTick>
 80008f4:	1b80      	subs	r0, r0, r6
 80008f6:	2802      	cmp	r0, #2
 80008f8:	f200 8085 	bhi.w	8000a06 <HAL_RCC_OscConfig+0x262>
        while (__HAL_RCC_GET_FLAG(RCC_FLAG_HSIRDY) == RESET)
 80008fc:	682b      	ldr	r3, [r5, #0]
 80008fe:	0798      	lsls	r0, r3, #30
 8000900:	d5f6      	bpl.n	80008f0 <HAL_RCC_OscConfig+0x14c>
        __HAL_RCC_HSI_CALIBRATIONVALUE_ADJUST(RCC_OscInitStruct->HSICalibrationValue);
 8000902:	682b      	ldr	r3, [r5, #0]
 8000904:	6962      	ldr	r2, [r4, #20]
 8000906:	f023 03f8 	bic.w	r3, r3, #248	; 0xf8
 800090a:	ea43 03c2 	orr.w	r3, r3, r2, lsl #3
 800090e:	602b      	str	r3, [r5, #0]
 8000910:	6823      	ldr	r3, [r4, #0]
 8000912:	e789      	b.n	8000828 <HAL_RCC_OscConfig+0x84>
    __HAL_RCC_LSE_CONFIG(RCC_OscInitStruct->LSEState);
 8000914:	4a51      	ldr	r2, [pc, #324]	; (8000a5c <HAL_RCC_OscConfig+0x2b8>)
 8000916:	6a13      	ldr	r3, [r2, #32]
 8000918:	f043 0301 	orr.w	r3, r3, #1
 800091c:	6213      	str	r3, [r2, #32]
      tickstart = HAL_GetTick();
 800091e:	f7ff fdd7 	bl	80004d0 <HAL_GetTick>
      while (__HAL_RCC_GET_FLAG(RCC_FLAG_LSERDY) == RESET)
 8000922:	4e4e      	ldr	r6, [pc, #312]	; (8000a5c <HAL_RCC_OscConfig+0x2b8>)
      tickstart = HAL_GetTick();
 8000924:	4680      	mov	r8, r0
        if ((HAL_GetTick() - tickstart) > RCC_LSE_TIMEOUT_VALUE)
 8000926:	f241 3788 	movw	r7, #5000	; 0x1388
      while (__HAL_RCC_GET_FLAG(RCC_FLAG_LSERDY) == RESET)
 800092a:	e005      	b.n	8000938 <HAL_RCC_OscConfig+0x194>
        if ((HAL_GetTick() - tickstart) > RCC_LSE_TIMEOUT_VALUE)
 800092c:	f7ff fdd0 	bl	80004d0 <HAL_GetTick>
 8000930:	eba0 0008 	sub.w	r0, r0, r8
 8000934:	42b8      	cmp	r0, r7
 8000936:	d866      	bhi.n	8000a06 <HAL_RCC_OscConfig+0x262>
      while (__HAL_RCC_GET_FLAG(RCC_FLAG_LSERDY) == RESET)
 8000938:	6a33      	ldr	r3, [r6, #32]
 800093a:	079b      	lsls	r3, r3, #30
 800093c:	d5f6      	bpl.n	800092c <HAL_RCC_OscConfig+0x188>
    if (pwrclkchanged == SET)
 800093e:	b125      	cbz	r5, 800094a <HAL_RCC_OscConfig+0x1a6>
      __HAL_RCC_PWR_CLK_DISABLE();
 8000940:	4a46      	ldr	r2, [pc, #280]	; (8000a5c <HAL_RCC_OscConfig+0x2b8>)
 8000942:	69d3      	ldr	r3, [r2, #28]
 8000944:	f023 5380 	bic.w	r3, r3, #268435456	; 0x10000000
 8000948:	61d3      	str	r3, [r2, #28]
  if ((RCC_OscInitStruct->PLL.PLLState) != RCC_PLL_NONE)
 800094a:	69e0      	ldr	r0, [r4, #28]
 800094c:	b1d0      	cbz	r0, 8000984 <HAL_RCC_OscConfig+0x1e0>
    if (__HAL_RCC_GET_SYSCLK_SOURCE() != RCC_SYSCLKSOURCE_STATUS_PLLCLK)
 800094e:	4d43      	ldr	r5, [pc, #268]	; (8000a5c <HAL_RCC_OscConfig+0x2b8>)
 8000950:	686a      	ldr	r2, [r5, #4]
 8000952:	f002 020c 	and.w	r2, r2, #12
 8000956:	2a08      	cmp	r2, #8
 8000958:	f000 80d3 	beq.w	8000b02 <HAL_RCC_OscConfig+0x35e>
      if ((RCC_OscInitStruct->PLL.PLLState) == RCC_PLL_ON)
 800095c:	2802      	cmp	r0, #2
        __HAL_RCC_PLL_DISABLE();
 800095e:	f04f 0100 	mov.w	r1, #0
 8000962:	4a44      	ldr	r2, [pc, #272]	; (8000a74 <HAL_RCC_OscConfig+0x2d0>)
      if ((RCC_OscInitStruct->PLL.PLLState) == RCC_PLL_ON)
 8000964:	f000 80de 	beq.w	8000b24 <HAL_RCC_OscConfig+0x380>
        __HAL_RCC_PLL_DISABLE();
 8000968:	6011      	str	r1, [r2, #0]
        tickstart = HAL_GetTick();
 800096a:	f7ff fdb1 	bl	80004d0 <HAL_GetTick>
        while (__HAL_RCC_GET_FLAG(RCC_FLAG_PLLRDY)  != RESET)
 800096e:	462c      	mov	r4, r5
        tickstart = HAL_GetTick();
 8000970:	4605      	mov	r5, r0
        while (__HAL_RCC_GET_FLAG(RCC_FLAG_PLLRDY)  != RESET)
 8000972:	e004      	b.n	800097e <HAL_RCC_OscConfig+0x1da>
          if ((HAL_GetTick() - tickstart) > PLL_TIMEOUT_VALUE)
 8000974:	f7ff fdac 	bl	80004d0 <HAL_GetTick>
 8000978:	1b40      	subs	r0, r0, r5
 800097a:	2802      	cmp	r0, #2
 800097c:	d843      	bhi.n	8000a06 <HAL_RCC_OscConfig+0x262>
        while (__HAL_RCC_GET_FLAG(RCC_FLAG_PLLRDY)  != RESET)
 800097e:	6823      	ldr	r3, [r4, #0]
 8000980:	019b      	lsls	r3, r3, #6
 8000982:	d4f7      	bmi.n	8000974 <HAL_RCC_OscConfig+0x1d0>
  return HAL_OK;
 8000984:	2000      	movs	r0, #0
}
 8000986:	b002      	add	sp, #8
 8000988:	e8bd 81f0 	ldmia.w	sp!, {r4, r5, r6, r7, r8, pc}
        || ((__HAL_RCC_GET_SYSCLK_SOURCE() == RCC_SYSCLKSOURCE_STATUS_PLLCLK) && (__HAL_RCC_GET_PLL_OSCSOURCE() == RCC_PLLSOURCE_HSI_DIV2)))
 800098c:	6852      	ldr	r2, [r2, #4]
 800098e:	03d6      	lsls	r6, r2, #15
 8000990:	d4a2      	bmi.n	80008d8 <HAL_RCC_OscConfig+0x134>
      if ((__HAL_RCC_GET_FLAG(RCC_FLAG_HSIRDY) != RESET) && (RCC_OscInitStruct->HSIState != RCC_HSI_ON))
 8000992:	4a32      	ldr	r2, [pc, #200]	; (8000a5c <HAL_RCC_OscConfig+0x2b8>)
 8000994:	6812      	ldr	r2, [r2, #0]
 8000996:	0795      	lsls	r5, r2, #30
 8000998:	d539      	bpl.n	8000a0e <HAL_RCC_OscConfig+0x26a>
 800099a:	6922      	ldr	r2, [r4, #16]
 800099c:	2a01      	cmp	r2, #1
 800099e:	d036      	beq.n	8000a0e <HAL_RCC_OscConfig+0x26a>
        return HAL_ERROR;
 80009a0:	2001      	movs	r0, #1
}
 80009a2:	b002      	add	sp, #8
 80009a4:	e8bd 81f0 	ldmia.w	sp!, {r4, r5, r6, r7, r8, pc}
      __HAL_RCC_LSI_DISABLE();
 80009a8:	4a2d      	ldr	r2, [pc, #180]	; (8000a60 <HAL_RCC_OscConfig+0x2bc>)
      while (__HAL_RCC_GET_FLAG(RCC_FLAG_LSIRDY) != RESET)
 80009aa:	4d2c      	ldr	r5, [pc, #176]	; (8000a5c <HAL_RCC_OscConfig+0x2b8>)
      __HAL_RCC_LSI_DISABLE();
 80009ac:	6013      	str	r3, [r2, #0]
      tickstart = HAL_GetTick();
 80009ae:	f7ff fd8f 	bl	80004d0 <HAL_GetTick>
 80009b2:	4606      	mov	r6, r0
      while (__HAL_RCC_GET_FLAG(RCC_FLAG_LSIRDY) != RESET)
 80009b4:	e004      	b.n	80009c0 <HAL_RCC_OscConfig+0x21c>
        if ((HAL_GetTick() - tickstart) > LSI_TIMEOUT_VALUE)
 80009b6:	f7ff fd8b 	bl	80004d0 <HAL_GetTick>
 80009ba:	1b80      	subs	r0, r0, r6
 80009bc:	2802      	cmp	r0, #2
 80009be:	d822      	bhi.n	8000a06 <HAL_RCC_OscConfig+0x262>
      while (__HAL_RCC_GET_FLAG(RCC_FLAG_LSIRDY) != RESET)
 80009c0:	6a6b      	ldr	r3, [r5, #36]	; 0x24
 80009c2:	079f      	lsls	r7, r3, #30
 80009c4:	d4f7      	bmi.n	80009b6 <HAL_RCC_OscConfig+0x212>
 80009c6:	e753      	b.n	8000870 <HAL_RCC_OscConfig+0xcc>
        || ((__HAL_RCC_GET_SYSCLK_SOURCE() == RCC_SYSCLKSOURCE_STATUS_PLLCLK) && (__HAL_RCC_GET_PLL_OSCSOURCE() == RCC_PLLSOURCE_HSE)))
 80009c8:	684a      	ldr	r2, [r1, #4]
 80009ca:	03d0      	lsls	r0, r2, #15
 80009cc:	f57f af01 	bpl.w	80007d2 <HAL_RCC_OscConfig+0x2e>
      if ((__HAL_RCC_GET_FLAG(RCC_FLAG_HSERDY) != RESET) && (RCC_OscInitStruct->HSEState == RCC_HSE_OFF))
 80009d0:	4a22      	ldr	r2, [pc, #136]	; (8000a5c <HAL_RCC_OscConfig+0x2b8>)
 80009d2:	6812      	ldr	r2, [r2, #0]
 80009d4:	0391      	lsls	r1, r2, #14
 80009d6:	f57f af25 	bpl.w	8000824 <HAL_RCC_OscConfig+0x80>
 80009da:	6862      	ldr	r2, [r4, #4]
 80009dc:	2a00      	cmp	r2, #0
 80009de:	f47f af21 	bne.w	8000824 <HAL_RCC_OscConfig+0x80>
 80009e2:	e7dd      	b.n	80009a0 <HAL_RCC_OscConfig+0x1fc>
      SET_BIT(PWR->CR, PWR_CR_DBP);
 80009e4:	681a      	ldr	r2, [r3, #0]
      while (HAL_IS_BIT_CLR(PWR->CR, PWR_CR_DBP))
 80009e6:	461e      	mov	r6, r3
      SET_BIT(PWR->CR, PWR_CR_DBP);
 80009e8:	f442 7280 	orr.w	r2, r2, #256	; 0x100
 80009ec:	601a      	str	r2, [r3, #0]
      tickstart = HAL_GetTick();
 80009ee:	f7ff fd6f 	bl	80004d0 <HAL_GetTick>
 80009f2:	4607      	mov	r7, r0
      while (HAL_IS_BIT_CLR(PWR->CR, PWR_CR_DBP))
 80009f4:	6833      	ldr	r3, [r6, #0]
 80009f6:	05da      	lsls	r2, r3, #23
 80009f8:	f53f af51 	bmi.w	800089e <HAL_RCC_OscConfig+0xfa>
        if ((HAL_GetTick() - tickstart) > RCC_DBP_TIMEOUT_VALUE)
 80009fc:	f7ff fd68 	bl	80004d0 <HAL_GetTick>
 8000a00:	1bc0      	subs	r0, r0, r7
 8000a02:	2864      	cmp	r0, #100	; 0x64
 8000a04:	d9f6      	bls.n	80009f4 <HAL_RCC_OscConfig+0x250>
            return HAL_TIMEOUT;
 8000a06:	2003      	movs	r0, #3
}
 8000a08:	b002      	add	sp, #8
 8000a0a:	e8bd 81f0 	ldmia.w	sp!, {r4, r5, r6, r7, r8, pc}
        __HAL_RCC_HSI_CALIBRATIONVALUE_ADJUST(RCC_OscInitStruct->HSICalibrationValue);
 8000a0e:	4913      	ldr	r1, [pc, #76]	; (8000a5c <HAL_RCC_OscConfig+0x2b8>)
 8000a10:	6960      	ldr	r0, [r4, #20]
 8000a12:	680a      	ldr	r2, [r1, #0]
 8000a14:	f022 02f8 	bic.w	r2, r2, #248	; 0xf8
 8000a18:	ea42 02c0 	orr.w	r2, r2, r0, lsl #3
 8000a1c:	600a      	str	r2, [r1, #0]
      if ((__HAL_RCC_GET_FLAG(RCC_FLAG_HSIRDY) != RESET) && (RCC_OscInitStruct->HSIState != RCC_HSI_ON))
 8000a1e:	e703      	b.n	8000828 <HAL_RCC_OscConfig+0x84>
      __HAL_RCC_HSE_CONFIG(RCC_OscInitStruct->HSEState);
 8000a20:	f103 4380 	add.w	r3, r3, #1073741824	; 0x40000000
 8000a24:	f503 3304 	add.w	r3, r3, #135168	; 0x21000
 8000a28:	681a      	ldr	r2, [r3, #0]
        while (__HAL_RCC_GET_FLAG(RCC_FLAG_HSERDY) != RESET)
 8000a2a:	461d      	mov	r5, r3
      __HAL_RCC_HSE_CONFIG(RCC_OscInitStruct->HSEState);
 8000a2c:	f422 3280 	bic.w	r2, r2, #65536	; 0x10000
 8000a30:	601a      	str	r2, [r3, #0]
 8000a32:	681a      	ldr	r2, [r3, #0]
 8000a34:	f422 2280 	bic.w	r2, r2, #262144	; 0x40000
 8000a38:	601a      	str	r2, [r3, #0]
        tickstart = HAL_GetTick();
 8000a3a:	f7ff fd49 	bl	80004d0 <HAL_GetTick>
 8000a3e:	4606      	mov	r6, r0
        while (__HAL_RCC_GET_FLAG(RCC_FLAG_HSERDY) != RESET)
 8000a40:	e004      	b.n	8000a4c <HAL_RCC_OscConfig+0x2a8>
          if ((HAL_GetTick() - tickstart) > HSE_TIMEOUT_VALUE)
 8000a42:	f7ff fd45 	bl	80004d0 <HAL_GetTick>
 8000a46:	1b80      	subs	r0, r0, r6
 8000a48:	2864      	cmp	r0, #100	; 0x64
 8000a4a:	d8dc      	bhi.n	8000a06 <HAL_RCC_OscConfig+0x262>
        while (__HAL_RCC_GET_FLAG(RCC_FLAG_HSERDY) != RESET)
 8000a4c:	682b      	ldr	r3, [r5, #0]
 8000a4e:	039b      	lsls	r3, r3, #14
 8000a50:	d4f7      	bmi.n	8000a42 <HAL_RCC_OscConfig+0x29e>
 8000a52:	e6e6      	b.n	8000822 <HAL_RCC_OscConfig+0x7e>
    return HAL_ERROR;
 8000a54:	2001      	movs	r0, #1
}
 8000a56:	4770      	bx	lr
    FlagStatus       pwrclkchanged = RESET;
 8000a58:	2500      	movs	r5, #0
 8000a5a:	e71b      	b.n	8000894 <HAL_RCC_OscConfig+0xf0>
 8000a5c:	40021000 	.word	0x40021000
 8000a60:	42420480 	.word	0x42420480
 8000a64:	20000000 	.word	0x20000000
 8000a68:	10624dd3 	.word	0x10624dd3
 8000a6c:	40007000 	.word	0x40007000
 8000a70:	42420000 	.word	0x42420000
 8000a74:	42420060 	.word	0x42420060
    __HAL_RCC_LSE_CONFIG(RCC_OscInitStruct->LSEState);
 8000a78:	f103 4380 	add.w	r3, r3, #1073741824	; 0x40000000
 8000a7c:	f503 3304 	add.w	r3, r3, #135168	; 0x21000
 8000a80:	6a1a      	ldr	r2, [r3, #32]
      while (__HAL_RCC_GET_FLAG(RCC_FLAG_LSERDY) != RESET)
 8000a82:	461e      	mov	r6, r3
    __HAL_RCC_LSE_CONFIG(RCC_OscInitStruct->LSEState);
 8000a84:	f022 0201 	bic.w	r2, r2, #1
 8000a88:	621a      	str	r2, [r3, #32]
 8000a8a:	6a1a      	ldr	r2, [r3, #32]
        if ((HAL_GetTick() - tickstart) > RCC_LSE_TIMEOUT_VALUE)
 8000a8c:	f241 3888 	movw	r8, #5000	; 0x1388
    __HAL_RCC_LSE_CONFIG(RCC_OscInitStruct->LSEState);
 8000a90:	f022 0204 	bic.w	r2, r2, #4
 8000a94:	621a      	str	r2, [r3, #32]
      tickstart = HAL_GetTick();
 8000a96:	f7ff fd1b 	bl	80004d0 <HAL_GetTick>
 8000a9a:	4607      	mov	r7, r0
      while (__HAL_RCC_GET_FLAG(RCC_FLAG_LSERDY) != RESET)
 8000a9c:	e004      	b.n	8000aa8 <HAL_RCC_OscConfig+0x304>
        if ((HAL_GetTick() - tickstart) > RCC_LSE_TIMEOUT_VALUE)
 8000a9e:	f7ff fd17 	bl	80004d0 <HAL_GetTick>
 8000aa2:	1bc0      	subs	r0, r0, r7
 8000aa4:	4540      	cmp	r0, r8
 8000aa6:	d8ae      	bhi.n	8000a06 <HAL_RCC_OscConfig+0x262>
      while (__HAL_RCC_GET_FLAG(RCC_FLAG_LSERDY) != RESET)
 8000aa8:	6a33      	ldr	r3, [r6, #32]
 8000aaa:	0798      	lsls	r0, r3, #30
 8000aac:	d4f7      	bmi.n	8000a9e <HAL_RCC_OscConfig+0x2fa>
    if (pwrclkchanged == SET)
 8000aae:	2d00      	cmp	r5, #0
 8000ab0:	f43f af4b 	beq.w	800094a <HAL_RCC_OscConfig+0x1a6>
 8000ab4:	e744      	b.n	8000940 <HAL_RCC_OscConfig+0x19c>
        __HAL_RCC_HSI_DISABLE();
 8000ab6:	4a34      	ldr	r2, [pc, #208]	; (8000b88 <HAL_RCC_OscConfig+0x3e4>)
        while (__HAL_RCC_GET_FLAG(RCC_FLAG_HSIRDY) != RESET)
 8000ab8:	4d34      	ldr	r5, [pc, #208]	; (8000b8c <HAL_RCC_OscConfig+0x3e8>)
        __HAL_RCC_HSI_DISABLE();
 8000aba:	6013      	str	r3, [r2, #0]
        tickstart = HAL_GetTick();
 8000abc:	f7ff fd08 	bl	80004d0 <HAL_GetTick>
 8000ac0:	4606      	mov	r6, r0
        while (__HAL_RCC_GET_FLAG(RCC_FLAG_HSIRDY) != RESET)
 8000ac2:	e004      	b.n	8000ace <HAL_RCC_OscConfig+0x32a>
          if ((HAL_GetTick() - tickstart) > HSI_TIMEOUT_VALUE)
 8000ac4:	f7ff fd04 	bl	80004d0 <HAL_GetTick>
 8000ac8:	1b80      	subs	r0, r0, r6
 8000aca:	2802      	cmp	r0, #2
 8000acc:	d89b      	bhi.n	8000a06 <HAL_RCC_OscConfig+0x262>
        while (__HAL_RCC_GET_FLAG(RCC_FLAG_HSIRDY) != RESET)
 8000ace:	682b      	ldr	r3, [r5, #0]
 8000ad0:	0799      	lsls	r1, r3, #30
 8000ad2:	d4f7      	bmi.n	8000ac4 <HAL_RCC_OscConfig+0x320>
 8000ad4:	6823      	ldr	r3, [r4, #0]
 8000ad6:	e6a7      	b.n	8000828 <HAL_RCC_OscConfig+0x84>
      __HAL_RCC_HSE_CONFIG(RCC_OscInitStruct->HSEState);
 8000ad8:	f103 4380 	add.w	r3, r3, #1073741824	; 0x40000000
 8000adc:	f5a3 333c 	sub.w	r3, r3, #192512	; 0x2f000
 8000ae0:	681a      	ldr	r2, [r3, #0]
 8000ae2:	f442 2280 	orr.w	r2, r2, #262144	; 0x40000
 8000ae6:	601a      	str	r2, [r3, #0]
 8000ae8:	681a      	ldr	r2, [r3, #0]
 8000aea:	f442 3280 	orr.w	r2, r2, #65536	; 0x10000
 8000aee:	601a      	str	r2, [r3, #0]
 8000af0:	e689      	b.n	8000806 <HAL_RCC_OscConfig+0x62>
    __HAL_RCC_LSE_CONFIG(RCC_OscInitStruct->LSEState);
 8000af2:	f042 0204 	orr.w	r2, r2, #4
 8000af6:	621a      	str	r2, [r3, #32]
 8000af8:	6a1a      	ldr	r2, [r3, #32]
 8000afa:	f042 0201 	orr.w	r2, r2, #1
 8000afe:	621a      	str	r2, [r3, #32]
 8000b00:	e70d      	b.n	800091e <HAL_RCC_OscConfig+0x17a>
      if ((RCC_OscInitStruct->PLL.PLLState) == RCC_PLL_OFF)
 8000b02:	2801      	cmp	r0, #1
 8000b04:	f43f af4d 	beq.w	80009a2 <HAL_RCC_OscConfig+0x1fe>
        pll_config = RCC->CFGR;
 8000b08:	686b      	ldr	r3, [r5, #4]
        if ((READ_BIT(pll_config, RCC_CFGR_PLLSRC) != RCC_OscInitStruct->PLL.PLLSource) ||
 8000b0a:	6a22      	ldr	r2, [r4, #32]
 8000b0c:	f403 3180 	and.w	r1, r3, #65536	; 0x10000
 8000b10:	4291      	cmp	r1, r2
 8000b12:	f47f af45 	bne.w	80009a0 <HAL_RCC_OscConfig+0x1fc>
 8000b16:	6a60      	ldr	r0, [r4, #36]	; 0x24
            (READ_BIT(pll_config, RCC_CFGR_PLLMULL) != RCC_OscInitStruct->PLL.PLLMUL))
 8000b18:	f403 1370 	and.w	r3, r3, #3932160	; 0x3c0000
    return HAL_ERROR;
 8000b1c:	1a18      	subs	r0, r3, r0
 8000b1e:	bf18      	it	ne
 8000b20:	2001      	movne	r0, #1
 8000b22:	e73e      	b.n	80009a2 <HAL_RCC_OscConfig+0x1fe>
        __HAL_RCC_PLL_DISABLE();
 8000b24:	6011      	str	r1, [r2, #0]
        tickstart = HAL_GetTick();
 8000b26:	f7ff fcd3 	bl	80004d0 <HAL_GetTick>
 8000b2a:	4606      	mov	r6, r0
        while (__HAL_RCC_GET_FLAG(RCC_FLAG_PLLRDY)  != RESET)
 8000b2c:	e005      	b.n	8000b3a <HAL_RCC_OscConfig+0x396>
          if ((HAL_GetTick() - tickstart) > PLL_TIMEOUT_VALUE)
 8000b2e:	f7ff fccf 	bl	80004d0 <HAL_GetTick>
 8000b32:	1b80      	subs	r0, r0, r6
 8000b34:	2802      	cmp	r0, #2
 8000b36:	f63f af66 	bhi.w	8000a06 <HAL_RCC_OscConfig+0x262>
        while (__HAL_RCC_GET_FLAG(RCC_FLAG_PLLRDY)  != RESET)
 8000b3a:	682b      	ldr	r3, [r5, #0]
 8000b3c:	0199      	lsls	r1, r3, #6
 8000b3e:	d4f6      	bmi.n	8000b2e <HAL_RCC_OscConfig+0x38a>
        if (RCC_OscInitStruct->PLL.PLLSource == RCC_PLLSOURCE_HSE)
 8000b40:	6a22      	ldr	r2, [r4, #32]
 8000b42:	f5b2 3f80 	cmp.w	r2, #65536	; 0x10000
 8000b46:	d105      	bne.n	8000b54 <HAL_RCC_OscConfig+0x3b0>
          __HAL_RCC_HSE_PREDIV_CONFIG(RCC_OscInitStruct->HSEPredivValue);
 8000b48:	686b      	ldr	r3, [r5, #4]
 8000b4a:	68a1      	ldr	r1, [r4, #8]
 8000b4c:	f423 3300 	bic.w	r3, r3, #131072	; 0x20000
 8000b50:	430b      	orrs	r3, r1
 8000b52:	606b      	str	r3, [r5, #4]
        __HAL_RCC_PLL_ENABLE();
 8000b54:	2501      	movs	r5, #1
        __HAL_RCC_PLL_CONFIG(RCC_OscInitStruct->PLL.PLLSource,
 8000b56:	4b0d      	ldr	r3, [pc, #52]	; (8000b8c <HAL_RCC_OscConfig+0x3e8>)
 8000b58:	6a60      	ldr	r0, [r4, #36]	; 0x24
 8000b5a:	6859      	ldr	r1, [r3, #4]
 8000b5c:	4302      	orrs	r2, r0
 8000b5e:	f421 1174 	bic.w	r1, r1, #3997696	; 0x3d0000
        __HAL_RCC_PLL_ENABLE();
 8000b62:	480b      	ldr	r0, [pc, #44]	; (8000b90 <HAL_RCC_OscConfig+0x3ec>)
        __HAL_RCC_PLL_CONFIG(RCC_OscInitStruct->PLL.PLLSource,
 8000b64:	430a      	orrs	r2, r1
 8000b66:	605a      	str	r2, [r3, #4]
        __HAL_RCC_PLL_ENABLE();
 8000b68:	6005      	str	r5, [r0, #0]
        while (__HAL_RCC_GET_FLAG(RCC_FLAG_PLLRDY)  == RESET)
 8000b6a:	461c      	mov	r4, r3
        tickstart = HAL_GetTick();
 8000b6c:	f7ff fcb0 	bl	80004d0 <HAL_GetTick>
 8000b70:	4605      	mov	r5, r0
        while (__HAL_RCC_GET_FLAG(RCC_FLAG_PLLRDY)  == RESET)
 8000b72:	e005      	b.n	8000b80 <HAL_RCC_OscConfig+0x3dc>
          if ((HAL_GetTick() - tickstart) > PLL_TIMEOUT_VALUE)
 8000b74:	f7ff fcac 	bl	80004d0 <HAL_GetTick>
 8000b78:	1b40      	subs	r0, r0, r5
 8000b7a:	2802      	cmp	r0, #2
 8000b7c:	f63f af43 	bhi.w	8000a06 <HAL_RCC_OscConfig+0x262>
        while (__HAL_RCC_GET_FLAG(RCC_FLAG_PLLRDY)  == RESET)
 8000b80:	6823      	ldr	r3, [r4, #0]
 8000b82:	019a      	lsls	r2, r3, #6
 8000b84:	d5f6      	bpl.n	8000b74 <HAL_RCC_OscConfig+0x3d0>
 8000b86:	e6fd      	b.n	8000984 <HAL_RCC_OscConfig+0x1e0>
 8000b88:	42420000 	.word	0x42420000
 8000b8c:	40021000 	.word	0x40021000
 8000b90:	42420060 	.word	0x42420060

08000b94 <HAL_RCC_ClockConfig>:
  if (RCC_ClkInitStruct == NULL)
 8000b94:	b178      	cbz	r0, 8000bb6 <HAL_RCC_ClockConfig+0x22>
  if (FLatency > __HAL_FLASH_GET_LATENCY())
 8000b96:	4a5d      	ldr	r2, [pc, #372]	; (8000d0c <HAL_RCC_ClockConfig+0x178>)
 8000b98:	6813      	ldr	r3, [r2, #0]
 8000b9a:	f003 0307 	and.w	r3, r3, #7
 8000b9e:	428b      	cmp	r3, r1
 8000ba0:	d20b      	bcs.n	8000bba <HAL_RCC_ClockConfig+0x26>
    __HAL_FLASH_SET_LATENCY(FLatency);
 8000ba2:	6813      	ldr	r3, [r2, #0]
 8000ba4:	f023 0307 	bic.w	r3, r3, #7
 8000ba8:	430b      	orrs	r3, r1
 8000baa:	6013      	str	r3, [r2, #0]
    if (__HAL_FLASH_GET_LATENCY() != FLatency)
 8000bac:	6813      	ldr	r3, [r2, #0]
 8000bae:	f003 0307 	and.w	r3, r3, #7
 8000bb2:	428b      	cmp	r3, r1
 8000bb4:	d001      	beq.n	8000bba <HAL_RCC_ClockConfig+0x26>
    return HAL_ERROR;
 8000bb6:	2001      	movs	r0, #1
}
 8000bb8:	4770      	bx	lr
{
 8000bba:	e92d 41f0 	stmdb	sp!, {r4, r5, r6, r7, r8, lr}
if (((RCC_ClkInitStruct->ClockType) & RCC_CLOCKTYPE_HCLK) == RCC_CLOCKTYPE_HCLK)
 8000bbe:	6803      	ldr	r3, [r0, #0]
{
 8000bc0:	b086      	sub	sp, #24
if (((RCC_ClkInitStruct->ClockType) & RCC_CLOCKTYPE_HCLK) == RCC_CLOCKTYPE_HCLK)
 8000bc2:	079d      	lsls	r5, r3, #30
 8000bc4:	d514      	bpl.n	8000bf0 <HAL_RCC_ClockConfig+0x5c>
    if (((RCC_ClkInitStruct->ClockType) & RCC_CLOCKTYPE_PCLK1) == RCC_CLOCKTYPE_PCLK1)
 8000bc6:	075c      	lsls	r4, r3, #29
 8000bc8:	d504      	bpl.n	8000bd4 <HAL_RCC_ClockConfig+0x40>
      MODIFY_REG(RCC->CFGR, RCC_CFGR_PPRE1, RCC_HCLK_DIV16);
 8000bca:	4c51      	ldr	r4, [pc, #324]	; (8000d10 <HAL_RCC_ClockConfig+0x17c>)
 8000bcc:	6862      	ldr	r2, [r4, #4]
 8000bce:	f442 62e0 	orr.w	r2, r2, #1792	; 0x700
 8000bd2:	6062      	str	r2, [r4, #4]
    if (((RCC_ClkInitStruct->ClockType) & RCC_CLOCKTYPE_PCLK2) == RCC_CLOCKTYPE_PCLK2)
 8000bd4:	071a      	lsls	r2, r3, #28
 8000bd6:	d504      	bpl.n	8000be2 <HAL_RCC_ClockConfig+0x4e>
      MODIFY_REG(RCC->CFGR, RCC_CFGR_PPRE2, (RCC_HCLK_DIV16 << 3));
 8000bd8:	4c4d      	ldr	r4, [pc, #308]	; (8000d10 <HAL_RCC_ClockConfig+0x17c>)
 8000bda:	6862      	ldr	r2, [r4, #4]
 8000bdc:	f442 5260 	orr.w	r2, r2, #14336	; 0x3800
 8000be0:	6062      	str	r2, [r4, #4]
    MODIFY_REG(RCC->CFGR, RCC_CFGR_HPRE, RCC_ClkInitStruct->AHBCLKDivider);
 8000be2:	4c4b      	ldr	r4, [pc, #300]	; (8000d10 <HAL_RCC_ClockConfig+0x17c>)
 8000be4:	6885      	ldr	r5, [r0, #8]
 8000be6:	6862      	ldr	r2, [r4, #4]
 8000be8:	f022 02f0 	bic.w	r2, r2, #240	; 0xf0
 8000bec:	432a      	orrs	r2, r5
 8000bee:	6062      	str	r2, [r4, #4]
  if (((RCC_ClkInitStruct->ClockType) & RCC_CLOCKTYPE_SYSCLK) == RCC_CLOCKTYPE_SYSCLK)
 8000bf0:	07db      	lsls	r3, r3, #31
 8000bf2:	4604      	mov	r4, r0
 8000bf4:	460d      	mov	r5, r1
 8000bf6:	d520      	bpl.n	8000c3a <HAL_RCC_ClockConfig+0xa6>
    if (RCC_ClkInitStruct->SYSCLKSource == RCC_SYSCLKSOURCE_HSE)
 8000bf8:	6842      	ldr	r2, [r0, #4]
      if (__HAL_RCC_GET_FLAG(RCC_FLAG_HSERDY) == RESET)
 8000bfa:	4b45      	ldr	r3, [pc, #276]	; (8000d10 <HAL_RCC_ClockConfig+0x17c>)
    if (RCC_ClkInitStruct->SYSCLKSource == RCC_SYSCLKSOURCE_HSE)
 8000bfc:	2a01      	cmp	r2, #1
      if (__HAL_RCC_GET_FLAG(RCC_FLAG_HSERDY) == RESET)
 8000bfe:	681b      	ldr	r3, [r3, #0]
    if (RCC_ClkInitStruct->SYSCLKSource == RCC_SYSCLKSOURCE_HSE)
 8000c00:	d06f      	beq.n	8000ce2 <HAL_RCC_ClockConfig+0x14e>
    else if (RCC_ClkInitStruct->SYSCLKSource == RCC_SYSCLKSOURCE_PLLCLK)
 8000c02:	2a02      	cmp	r2, #2
 8000c04:	d07e      	beq.n	8000d04 <HAL_RCC_ClockConfig+0x170>
      if (__HAL_RCC_GET_FLAG(RCC_FLAG_HSIRDY) == RESET)
 8000c06:	0798      	lsls	r0, r3, #30
 8000c08:	d527      	bpl.n	8000c5a <HAL_RCC_ClockConfig+0xc6>
    __HAL_RCC_SYSCLK_CONFIG(RCC_ClkInitStruct->SYSCLKSource);
 8000c0a:	4e41      	ldr	r6, [pc, #260]	; (8000d10 <HAL_RCC_ClockConfig+0x17c>)
      if ((HAL_GetTick() - tickstart) > CLOCKSWITCH_TIMEOUT_VALUE)
 8000c0c:	f241 3888 	movw	r8, #5000	; 0x1388
    __HAL_RCC_SYSCLK_CONFIG(RCC_ClkInitStruct->SYSCLKSource);
 8000c10:	6873      	ldr	r3, [r6, #4]
 8000c12:	f023 0303 	bic.w	r3, r3, #3
 8000c16:	4313      	orrs	r3, r2
 8000c18:	6073      	str	r3, [r6, #4]
    tickstart = HAL_GetTick();
 8000c1a:	f7ff fc59 	bl	80004d0 <HAL_GetTick>
 8000c1e:	4607      	mov	r7, r0
    while (__HAL_RCC_GET_SYSCLK_SOURCE() != (RCC_ClkInitStruct->SYSCLKSource << RCC_CFGR_SWS_Pos))
 8000c20:	e004      	b.n	8000c2c <HAL_RCC_ClockConfig+0x98>
      if ((HAL_GetTick() - tickstart) > CLOCKSWITCH_TIMEOUT_VALUE)
 8000c22:	f7ff fc55 	bl	80004d0 <HAL_GetTick>
 8000c26:	1bc0      	subs	r0, r0, r7
 8000c28:	4540      	cmp	r0, r8
 8000c2a:	d869      	bhi.n	8000d00 <HAL_RCC_ClockConfig+0x16c>
    while (__HAL_RCC_GET_SYSCLK_SOURCE() != (RCC_ClkInitStruct->SYSCLKSource << RCC_CFGR_SWS_Pos))
 8000c2c:	6873      	ldr	r3, [r6, #4]
 8000c2e:	6862      	ldr	r2, [r4, #4]
 8000c30:	f003 030c 	and.w	r3, r3, #12
 8000c34:	ebb3 0f82 	cmp.w	r3, r2, lsl #2
 8000c38:	d1f3      	bne.n	8000c22 <HAL_RCC_ClockConfig+0x8e>
  if (FLatency < __HAL_FLASH_GET_LATENCY())
 8000c3a:	4a34      	ldr	r2, [pc, #208]	; (8000d0c <HAL_RCC_ClockConfig+0x178>)
 8000c3c:	6813      	ldr	r3, [r2, #0]
 8000c3e:	f003 0307 	and.w	r3, r3, #7
 8000c42:	42ab      	cmp	r3, r5
 8000c44:	d90d      	bls.n	8000c62 <HAL_RCC_ClockConfig+0xce>
    __HAL_FLASH_SET_LATENCY(FLatency);
 8000c46:	6813      	ldr	r3, [r2, #0]
 8000c48:	f023 0307 	bic.w	r3, r3, #7
 8000c4c:	432b      	orrs	r3, r5
 8000c4e:	6013      	str	r3, [r2, #0]
    if (__HAL_FLASH_GET_LATENCY() != FLatency)
 8000c50:	6813      	ldr	r3, [r2, #0]
 8000c52:	f003 0307 	and.w	r3, r3, #7
 8000c56:	42ab      	cmp	r3, r5
 8000c58:	d003      	beq.n	8000c62 <HAL_RCC_ClockConfig+0xce>
    return HAL_ERROR;
 8000c5a:	2001      	movs	r0, #1
}
 8000c5c:	b006      	add	sp, #24
 8000c5e:	e8bd 81f0 	ldmia.w	sp!, {r4, r5, r6, r7, r8, pc}
if (((RCC_ClkInitStruct->ClockType) & RCC_CLOCKTYPE_PCLK1) == RCC_CLOCKTYPE_PCLK1)
 8000c62:	6823      	ldr	r3, [r4, #0]
 8000c64:	0759      	lsls	r1, r3, #29
 8000c66:	d506      	bpl.n	8000c76 <HAL_RCC_ClockConfig+0xe2>
    MODIFY_REG(RCC->CFGR, RCC_CFGR_PPRE1, RCC_ClkInitStruct->APB1CLKDivider);
 8000c68:	4929      	ldr	r1, [pc, #164]	; (8000d10 <HAL_RCC_ClockConfig+0x17c>)
 8000c6a:	68e0      	ldr	r0, [r4, #12]
 8000c6c:	684a      	ldr	r2, [r1, #4]
 8000c6e:	f422 62e0 	bic.w	r2, r2, #1792	; 0x700
 8000c72:	4302      	orrs	r2, r0
 8000c74:	604a      	str	r2, [r1, #4]
  if (((RCC_ClkInitStruct->ClockType) & RCC_CLOCKTYPE_PCLK2) == RCC_CLOCKTYPE_PCLK2)
 8000c76:	071a      	lsls	r2, r3, #28
 8000c78:	d507      	bpl.n	8000c8a <HAL_RCC_ClockConfig+0xf6>
    MODIFY_REG(RCC->CFGR, RCC_CFGR_PPRE2, ((RCC_ClkInitStruct->APB2CLKDivider) << 3));
 8000c7a:	4a25      	ldr	r2, [pc, #148]	; (8000d10 <HAL_RCC_ClockConfig+0x17c>)
 8000c7c:	6921      	ldr	r1, [r4, #16]
 8000c7e:	6853      	ldr	r3, [r2, #4]
 8000c80:	f423 5360 	bic.w	r3, r3, #14336	; 0x3800
 8000c84:	ea43 03c1 	orr.w	r3, r3, r1, lsl #3
 8000c88:	6053      	str	r3, [r2, #4]
  const uint8_t aPredivFactorTable[2] = {1, 2};
 8000c8a:	f240 2201 	movw	r2, #513	; 0x201
  const uint8_t aPLLMULFactorTable[16] = {2, 3, 4, 5, 6, 7, 8, 9, 10, 11, 12, 13, 14, 15, 16, 16};
 8000c8e:	4b21      	ldr	r3, [pc, #132]	; (8000d14 <HAL_RCC_ClockConfig+0x180>)
 8000c90:	ac06      	add	r4, sp, #24
  const uint8_t aPredivFactorTable[2] = {1, 2};
 8000c92:	f8ad 2004 	strh.w	r2, [sp, #4]
  const uint8_t aPLLMULFactorTable[16] = {2, 3, 4, 5, 6, 7, 8, 9, 10, 11, 12, 13, 14, 15, 16, 16};
 8000c96:	cb0f      	ldmia	r3, {r0, r1, r2, r3}
 8000c98:	e904 000f 	stmdb	r4, {r0, r1, r2, r3}
  tmpreg = RCC->CFGR;
 8000c9c:	491c      	ldr	r1, [pc, #112]	; (8000d10 <HAL_RCC_ClockConfig+0x17c>)
 8000c9e:	684a      	ldr	r2, [r1, #4]
  switch (tmpreg & RCC_CFGR_SWS)
 8000ca0:	f002 030c 	and.w	r3, r2, #12
 8000ca4:	2b08      	cmp	r3, #8
 8000ca6:	d11a      	bne.n	8000cde <HAL_RCC_ClockConfig+0x14a>
      pllmul = aPLLMULFactorTable[(uint32_t)(tmpreg & RCC_CFGR_PLLMULL) >> RCC_CFGR_PLLMULL_Pos];
 8000ca8:	f3c2 4383 	ubfx	r3, r2, #18, #4
 8000cac:	4423      	add	r3, r4
 8000cae:	f813 0c10 	ldrb.w	r0, [r3, #-16]
      if ((tmpreg & RCC_CFGR_PLLSRC) != RCC_PLLSOURCE_HSI_DIV2)
 8000cb2:	03d3      	lsls	r3, r2, #15
 8000cb4:	d418      	bmi.n	8000ce8 <HAL_RCC_ClockConfig+0x154>
        pllclk = (uint32_t)((HSI_VALUE >> 1) * pllmul);
 8000cb6:	4b18      	ldr	r3, [pc, #96]	; (8000d18 <HAL_RCC_ClockConfig+0x184>)
 8000cb8:	fb03 f300 	mul.w	r3, r3, r0
  SystemCoreClock = HAL_RCC_GetSysClockFreq() >> AHBPrescTable[(RCC->CFGR & RCC_CFGR_HPRE) >> RCC_CFGR_HPRE_Pos];
 8000cbc:	4a14      	ldr	r2, [pc, #80]	; (8000d10 <HAL_RCC_ClockConfig+0x17c>)
 8000cbe:	4817      	ldr	r0, [pc, #92]	; (8000d1c <HAL_RCC_ClockConfig+0x188>)
 8000cc0:	6852      	ldr	r2, [r2, #4]
  HAL_InitTick(uwTickPrio);
 8000cc2:	4917      	ldr	r1, [pc, #92]	; (8000d20 <HAL_RCC_ClockConfig+0x18c>)
  SystemCoreClock = HAL_RCC_GetSysClockFreq() >> AHBPrescTable[(RCC->CFGR & RCC_CFGR_HPRE) >> RCC_CFGR_HPRE_Pos];
 8000cc4:	f3c2 1203 	ubfx	r2, r2, #4, #4
 8000cc8:	5c80      	ldrb	r0, [r0, r2]
 8000cca:	4a16      	ldr	r2, [pc, #88]	; (8000d24 <HAL_RCC_ClockConfig+0x190>)
 8000ccc:	40c3      	lsrs	r3, r0
  HAL_InitTick(uwTickPrio);
 8000cce:	6808      	ldr	r0, [r1, #0]
  SystemCoreClock = HAL_RCC_GetSysClockFreq() >> AHBPrescTable[(RCC->CFGR & RCC_CFGR_HPRE) >> RCC_CFGR_HPRE_Pos];
 8000cd0:	6013      	str	r3, [r2, #0]
  HAL_InitTick(uwTickPrio);
 8000cd2:	f7ff fbbb 	bl	800044c <HAL_InitTick>
  return HAL_OK;
 8000cd6:	2000      	movs	r0, #0
}
 8000cd8:	b006      	add	sp, #24
 8000cda:	e8bd 81f0 	ldmia.w	sp!, {r4, r5, r6, r7, r8, pc}
      sysclockfreq = HSE_VALUE;
 8000cde:	4b12      	ldr	r3, [pc, #72]	; (8000d28 <HAL_RCC_ClockConfig+0x194>)
 8000ce0:	e7ec      	b.n	8000cbc <HAL_RCC_ClockConfig+0x128>
      if (__HAL_RCC_GET_FLAG(RCC_FLAG_HSERDY) == RESET)
 8000ce2:	039f      	lsls	r7, r3, #14
 8000ce4:	d491      	bmi.n	8000c0a <HAL_RCC_ClockConfig+0x76>
 8000ce6:	e7b8      	b.n	8000c5a <HAL_RCC_ClockConfig+0xc6>
        prediv = aPredivFactorTable[(uint32_t)(RCC->CFGR & RCC_CFGR_PLLXTPRE) >> RCC_CFGR_PLLXTPRE_Pos];
 8000ce8:	684a      	ldr	r2, [r1, #4]
        pllclk = (uint32_t)((HSE_VALUE  * pllmul) / prediv);
 8000cea:	4b0f      	ldr	r3, [pc, #60]	; (8000d28 <HAL_RCC_ClockConfig+0x194>)
        prediv = aPredivFactorTable[(uint32_t)(RCC->CFGR & RCC_CFGR_PLLXTPRE) >> RCC_CFGR_PLLXTPRE_Pos];
 8000cec:	f3c2 4240 	ubfx	r2, r2, #17, #1
        pllclk = (uint32_t)((HSE_VALUE  * pllmul) / prediv);
 8000cf0:	fb03 f300 	mul.w	r3, r3, r0
        prediv = aPredivFactorTable[(uint32_t)(RCC->CFGR & RCC_CFGR_PLLXTPRE) >> RCC_CFGR_PLLXTPRE_Pos];
 8000cf4:	4422      	add	r2, r4
 8000cf6:	f812 2c14 	ldrb.w	r2, [r2, #-20]
        pllclk = (uint32_t)((HSE_VALUE  * pllmul) / prediv);
 8000cfa:	fbb3 f3f2 	udiv	r3, r3, r2
 8000cfe:	e7dd      	b.n	8000cbc <HAL_RCC_ClockConfig+0x128>
        return HAL_TIMEOUT;
 8000d00:	2003      	movs	r0, #3
 8000d02:	e7ab      	b.n	8000c5c <HAL_RCC_ClockConfig+0xc8>
      if (__HAL_RCC_GET_FLAG(RCC_FLAG_PLLRDY) == RESET)
 8000d04:	019e      	lsls	r6, r3, #6
 8000d06:	d480      	bmi.n	8000c0a <HAL_RCC_ClockConfig+0x76>
 8000d08:	e7a7      	b.n	8000c5a <HAL_RCC_ClockConfig+0xc6>
 8000d0a:	bf00      	nop
 8000d0c:	40022000 	.word	0x40022000
 8000d10:	40021000 	.word	0x40021000
 8000d14:	08002c34 	.word	0x08002c34
 8000d18:	003d0900 	.word	0x003d0900
 8000d1c:	08002cd4 	.word	0x08002cd4
 8000d20:	20000008 	.word	0x20000008
 8000d24:	20000000 	.word	0x20000000
 8000d28:	007a1200 	.word	0x007a1200

08000d2c <osKernelInitialize>:
 */
__STATIC_FORCEINLINE uint32_t __get_IPSR(void)
{
  uint32_t result;

  __ASM volatile ("MRS %0, ipsr" : "=r" (result) );
 8000d2c:	f3ef 8305 	mrs	r3, IPSR
/*---------------------------------------------------------------------------*/

osStatus_t osKernelInitialize (void) {
  osStatus_t stat;

  if (IS_IRQ()) {
 8000d30:	b983      	cbnz	r3, 8000d54 <osKernelInitialize+0x28>
 */
__STATIC_FORCEINLINE uint32_t __get_PRIMASK(void)
{
  uint32_t result;

  __ASM volatile ("MRS %0, primask" : "=r" (result) :: "memory");
 8000d32:	f3ef 8310 	mrs	r3, PRIMASK
 8000d36:	b96b      	cbnz	r3, 8000d54 <osKernelInitialize+0x28>
 8000d38:	4b08      	ldr	r3, [pc, #32]	; (8000d5c <osKernelInitialize+0x30>)
 8000d3a:	6818      	ldr	r0, [r3, #0]
 8000d3c:	2802      	cmp	r0, #2
 8000d3e:	d003      	beq.n	8000d48 <osKernelInitialize+0x1c>
    stat = osErrorISR;
  }
  else {
    if (KernelState == osKernelInactive) {
 8000d40:	b928      	cbnz	r0, 8000d4e <osKernelInitialize+0x22>
      #if defined(USE_FreeRTOS_HEAP_5)
        vPortDefineHeapRegions (xHeapRegions);
      #endif
      KernelState = osKernelReady;
 8000d42:	2201      	movs	r2, #1
 8000d44:	601a      	str	r2, [r3, #0]
 8000d46:	4770      	bx	lr
 */
__STATIC_FORCEINLINE uint32_t __get_BASEPRI(void)
{
  uint32_t result;

  __ASM volatile ("MRS %0, basepri" : "=r" (result) );
 8000d48:	f3ef 8311 	mrs	r3, BASEPRI
  if (IS_IRQ()) {
 8000d4c:	b913      	cbnz	r3, 8000d54 <osKernelInitialize+0x28>
      stat = osOK;
    } else {
      stat = osError;
 8000d4e:	f04f 30ff 	mov.w	r0, #4294967295
    }
  }

  return (stat);
}
 8000d52:	4770      	bx	lr
    stat = osErrorISR;
 8000d54:	f06f 0005 	mvn.w	r0, #5
 8000d58:	4770      	bx	lr
 8000d5a:	bf00      	nop
 8000d5c:	2000028c 	.word	0x2000028c

08000d60 <osKernelStart>:
  __ASM volatile ("MRS %0, ipsr" : "=r" (result) );
 8000d60:	f3ef 8305 	mrs	r3, IPSR
}

osStatus_t osKernelStart (void) {
  osStatus_t stat;

  if (IS_IRQ()) {
 8000d64:	b9c3      	cbnz	r3, 8000d98 <osKernelStart+0x38>
osStatus_t osKernelStart (void) {
 8000d66:	b510      	push	{r4, lr}
  __ASM volatile ("MRS %0, primask" : "=r" (result) :: "memory");
 8000d68:	f3ef 8410 	mrs	r4, PRIMASK
  if (IS_IRQ()) {
 8000d6c:	b98c      	cbnz	r4, 8000d92 <osKernelStart+0x32>
 8000d6e:	4b0c      	ldr	r3, [pc, #48]	; (8000da0 <osKernelStart+0x40>)
 8000d70:	681a      	ldr	r2, [r3, #0]
 8000d72:	2a02      	cmp	r2, #2
 8000d74:	d007      	beq.n	8000d86 <osKernelStart+0x26>
    stat = osErrorISR;
  }
  else {
    if (KernelState == osKernelReady) {
 8000d76:	2a01      	cmp	r2, #1
 8000d78:	d108      	bne.n	8000d8c <osKernelStart+0x2c>
      KernelState = osKernelRunning;
 8000d7a:	2202      	movs	r2, #2
 8000d7c:	601a      	str	r2, [r3, #0]
      vTaskStartScheduler();
 8000d7e:	f000 ff81 	bl	8001c84 <vTaskStartScheduler>
      stat = osOK;
 8000d82:	4620      	mov	r0, r4
      stat = osError;
    }
  }

  return (stat);
}
 8000d84:	bd10      	pop	{r4, pc}
  __ASM volatile ("MRS %0, basepri" : "=r" (result) );
 8000d86:	f3ef 8311 	mrs	r3, BASEPRI
  if (IS_IRQ()) {
 8000d8a:	b913      	cbnz	r3, 8000d92 <osKernelStart+0x32>
      stat = osError;
 8000d8c:	f04f 30ff 	mov.w	r0, #4294967295
}
 8000d90:	bd10      	pop	{r4, pc}
    stat = osErrorISR;
 8000d92:	f06f 0005 	mvn.w	r0, #5
}
 8000d96:	bd10      	pop	{r4, pc}
    stat = osErrorISR;
 8000d98:	f06f 0005 	mvn.w	r0, #5
}
 8000d9c:	4770      	bx	lr
 8000d9e:	bf00      	nop
 8000da0:	2000028c 	.word	0x2000028c

08000da4 <osThreadNew>:
  return (configCPU_CLOCK_HZ);
}

/*---------------------------------------------------------------------------*/

osThreadId_t osThreadNew (osThreadFunc_t func, void *argument, const osThreadAttr_t *attr) {
 8000da4:	b5f0      	push	{r4, r5, r6, r7, lr}
  uint32_t stack;
  TaskHandle_t hTask;
  UBaseType_t prio;
  int32_t mem;

  hTask = NULL;
 8000da6:	2400      	movs	r4, #0
osThreadId_t osThreadNew (osThreadFunc_t func, void *argument, const osThreadAttr_t *attr) {
 8000da8:	b087      	sub	sp, #28
  hTask = NULL;
 8000daa:	9405      	str	r4, [sp, #20]
  __ASM volatile ("MRS %0, ipsr" : "=r" (result) );
 8000dac:	f3ef 8505 	mrs	r5, IPSR

  if (!IS_IRQ() && (func != NULL)) {
 8000db0:	2d00      	cmp	r5, #0
 8000db2:	d135      	bne.n	8000e20 <osThreadNew+0x7c>
  __ASM volatile ("MRS %0, primask" : "=r" (result) :: "memory");
 8000db4:	f3ef 8310 	mrs	r3, PRIMASK
 8000db8:	2b00      	cmp	r3, #0
 8000dba:	d138      	bne.n	8000e2e <osThreadNew+0x8a>
 8000dbc:	4b25      	ldr	r3, [pc, #148]	; (8000e54 <osThreadNew+0xb0>)
 8000dbe:	681b      	ldr	r3, [r3, #0]
 8000dc0:	2b02      	cmp	r3, #2
 8000dc2:	d030      	beq.n	8000e26 <osThreadNew+0x82>
 8000dc4:	b398      	cbz	r0, 8000e2e <osThreadNew+0x8a>
 8000dc6:	460b      	mov	r3, r1
    stack = configMINIMAL_STACK_SIZE;
    prio  = (UBaseType_t)osPriorityNormal;

    empty = '\0';
 8000dc8:	2100      	movs	r1, #0
 8000dca:	f88d 1013 	strb.w	r1, [sp, #19]
    name  = &empty;
    mem   = -1;

    if (attr != NULL) {
 8000dce:	b1e2      	cbz	r2, 8000e0a <osThreadNew+0x66>
      if (attr->name != NULL) {
 8000dd0:	6811      	ldr	r1, [r2, #0]
 8000dd2:	b399      	cbz	r1, 8000e3c <osThreadNew+0x98>
        name = attr->name;
      }
      if (attr->priority != osPriorityNone) {
 8000dd4:	6994      	ldr	r4, [r2, #24]
 8000dd6:	b36c      	cbz	r4, 8000e34 <osThreadNew+0x90>
        prio = (UBaseType_t)attr->priority;
      }

      if ((prio < osPriorityIdle) || (prio > osPriorityISR) || ((attr->attr_bits & osThreadJoinable) == osThreadJoinable)) {
 8000dd8:	1e65      	subs	r5, r4, #1
 8000dda:	2d37      	cmp	r5, #55	; 0x37
 8000ddc:	d820      	bhi.n	8000e20 <osThreadNew+0x7c>
 8000dde:	6855      	ldr	r5, [r2, #4]
 8000de0:	07ed      	lsls	r5, r5, #31
 8000de2:	d41d      	bmi.n	8000e20 <osThreadNew+0x7c>
        return (NULL);
      }

      if (attr->stack_size > 0U) {
 8000de4:	6955      	ldr	r5, [r2, #20]
 8000de6:	bb3d      	cbnz	r5, 8000e38 <osThreadNew+0x94>
    stack = configMINIMAL_STACK_SIZE;
 8000de8:	2780      	movs	r7, #128	; 0x80
 8000dea:	e9d2 6c02 	ldrd	r6, ip, [r2, #8]
        /* In FreeRTOS stack is not in bytes, but in sizeof(StackType_t) which is 4 on ARM ports.       */
        /* Stack size should be therefore 4 byte aligned in order to avoid division caused side effects */
        stack = attr->stack_size / sizeof(StackType_t);
      }

      if ((attr->cb_mem    != NULL) && (attr->cb_size    >= sizeof(StaticTask_t)) &&
 8000dee:	b346      	cbz	r6, 8000e42 <osThreadNew+0x9e>
 8000df0:	f1bc 0f5b 	cmp.w	ip, #91	; 0x5b
 8000df4:	d91b      	bls.n	8000e2e <osThreadNew+0x8a>
          (attr->stack_mem != NULL) && (attr->stack_size >  0U)) {
 8000df6:	6912      	ldr	r2, [r2, #16]
      if ((attr->cb_mem    != NULL) && (attr->cb_size    >= sizeof(StaticTask_t)) &&
 8000df8:	b1ca      	cbz	r2, 8000e2e <osThreadNew+0x8a>
          (attr->stack_mem != NULL) && (attr->stack_size >  0U)) {
 8000dfa:	b1c5      	cbz	r5, 8000e2e <osThreadNew+0x8a>
    else {
      mem = 0;
    }

    if (mem == 1) {
      hTask = xTaskCreateStatic ((TaskFunction_t)func, name, stack, argument, prio, (StackType_t  *)attr->stack_mem,
 8000dfc:	e9cd 2601 	strd	r2, r6, [sp, #4]
 8000e00:	9400      	str	r4, [sp, #0]
 8000e02:	463a      	mov	r2, r7
 8000e04:	f000 fe5c 	bl	8001ac0 <xTaskCreateStatic>
 8000e08:	e00b      	b.n	8000e22 <osThreadNew+0x7e>
 8000e0a:	2280      	movs	r2, #128	; 0x80
    prio  = (UBaseType_t)osPriorityNormal;
 8000e0c:	2418      	movs	r4, #24
    name  = &empty;
 8000e0e:	f10d 0113 	add.w	r1, sp, #19
                                                                                    (StaticTask_t *)attr->cb_mem);
    }
    else {
      if (mem == 0) {
        if (xTaskCreate ((TaskFunction_t)func, name, (uint16_t)stack, argument, prio, &hTask) != pdPASS) {
 8000e12:	ad05      	add	r5, sp, #20
 8000e14:	e9cd 4500 	strd	r4, r5, [sp]
 8000e18:	f000 fe8a 	bl	8001b30 <xTaskCreate>
 8000e1c:	2801      	cmp	r0, #1
 8000e1e:	d006      	beq.n	8000e2e <osThreadNew+0x8a>
        return (NULL);
 8000e20:	2000      	movs	r0, #0
      }
    }
  }

  return ((osThreadId_t)hTask);
}
 8000e22:	b007      	add	sp, #28
 8000e24:	bdf0      	pop	{r4, r5, r6, r7, pc}
  __ASM volatile ("MRS %0, basepri" : "=r" (result) );
 8000e26:	f3ef 8311 	mrs	r3, BASEPRI
  if (!IS_IRQ() && (func != NULL)) {
 8000e2a:	2b00      	cmp	r3, #0
 8000e2c:	d0ca      	beq.n	8000dc4 <osThreadNew+0x20>
 8000e2e:	9805      	ldr	r0, [sp, #20]
}
 8000e30:	b007      	add	sp, #28
 8000e32:	bdf0      	pop	{r4, r5, r6, r7, pc}
    prio  = (UBaseType_t)osPriorityNormal;
 8000e34:	2418      	movs	r4, #24
 8000e36:	e7d2      	b.n	8000dde <osThreadNew+0x3a>
        stack = attr->stack_size / sizeof(StackType_t);
 8000e38:	08af      	lsrs	r7, r5, #2
 8000e3a:	e7d6      	b.n	8000dea <osThreadNew+0x46>
    name  = &empty;
 8000e3c:	f10d 0113 	add.w	r1, sp, #19
 8000e40:	e7c8      	b.n	8000dd4 <osThreadNew+0x30>
        if ((attr->cb_mem == NULL) && (attr->cb_size == 0U) && (attr->stack_mem == NULL)) {
 8000e42:	f1bc 0f00 	cmp.w	ip, #0
 8000e46:	d1f2      	bne.n	8000e2e <osThreadNew+0x8a>
 8000e48:	6912      	ldr	r2, [r2, #16]
 8000e4a:	2a00      	cmp	r2, #0
 8000e4c:	d1ef      	bne.n	8000e2e <osThreadNew+0x8a>
 8000e4e:	b2ba      	uxth	r2, r7
 8000e50:	e7df      	b.n	8000e12 <osThreadNew+0x6e>
 8000e52:	bf00      	nop
 8000e54:	2000028c 	.word	0x2000028c

08000e58 <osDelay>:

  /* Return flags before clearing */
  return (rflags);
}

osStatus_t osDelay (uint32_t ticks) {
 8000e58:	b508      	push	{r3, lr}
  __ASM volatile ("MRS %0, ipsr" : "=r" (result) );
 8000e5a:	f3ef 8305 	mrs	r3, IPSR
  osStatus_t stat;

  if (IS_IRQ()) {
 8000e5e:	b983      	cbnz	r3, 8000e82 <osDelay+0x2a>
  __ASM volatile ("MRS %0, primask" : "=r" (result) :: "memory");
 8000e60:	f3ef 8310 	mrs	r3, PRIMASK
 8000e64:	b96b      	cbnz	r3, 8000e82 <osDelay+0x2a>
 8000e66:	4b08      	ldr	r3, [pc, #32]	; (8000e88 <osDelay+0x30>)
 8000e68:	681b      	ldr	r3, [r3, #0]
 8000e6a:	2b02      	cmp	r3, #2
 8000e6c:	d005      	beq.n	8000e7a <osDelay+0x22>
    stat = osErrorISR;
  }
  else {
    stat = osOK;

    if (ticks != 0U) {
 8000e6e:	b900      	cbnz	r0, 8000e72 <osDelay+0x1a>
      vTaskDelay(ticks);
    }
  }

  return (stat);
}
 8000e70:	bd08      	pop	{r3, pc}
      vTaskDelay(ticks);
 8000e72:	f001 f8af 	bl	8001fd4 <vTaskDelay>
    stat = osOK;
 8000e76:	2000      	movs	r0, #0
}
 8000e78:	bd08      	pop	{r3, pc}
  __ASM volatile ("MRS %0, basepri" : "=r" (result) );
 8000e7a:	f3ef 8311 	mrs	r3, BASEPRI
  if (IS_IRQ()) {
 8000e7e:	2b00      	cmp	r3, #0
 8000e80:	d0f5      	beq.n	8000e6e <osDelay+0x16>
    stat = osErrorISR;
 8000e82:	f06f 0005 	mvn.w	r0, #5
}
 8000e86:	bd08      	pop	{r3, pc}
 8000e88:	2000028c 	.word	0x2000028c

08000e8c <vApplicationGetIdleTaskMemory>:
  equals to 1 and is required for static memory allocation support.
*/
void vApplicationGetIdleTaskMemory (StaticTask_t **ppxIdleTaskTCBBuffer, StackType_t **ppxIdleTaskStackBuffer, uint32_t *pulIdleTaskStackSize) {
  *ppxIdleTaskTCBBuffer   = &Idle_TCB;
  *ppxIdleTaskStackBuffer = &Idle_Stack[0];
  *pulIdleTaskStackSize   = (uint32_t)configMINIMAL_STACK_SIZE;
 8000e8c:	2380      	movs	r3, #128	; 0x80
void vApplicationGetIdleTaskMemory (StaticTask_t **ppxIdleTaskTCBBuffer, StackType_t **ppxIdleTaskStackBuffer, uint32_t *pulIdleTaskStackSize) {
 8000e8e:	b430      	push	{r4, r5}
  *ppxIdleTaskTCBBuffer   = &Idle_TCB;
 8000e90:	4d03      	ldr	r5, [pc, #12]	; (8000ea0 <vApplicationGetIdleTaskMemory+0x14>)
  *ppxIdleTaskStackBuffer = &Idle_Stack[0];
 8000e92:	4c04      	ldr	r4, [pc, #16]	; (8000ea4 <vApplicationGetIdleTaskMemory+0x18>)
  *ppxIdleTaskTCBBuffer   = &Idle_TCB;
 8000e94:	6005      	str	r5, [r0, #0]
  *ppxIdleTaskStackBuffer = &Idle_Stack[0];
 8000e96:	600c      	str	r4, [r1, #0]
  *pulIdleTaskStackSize   = (uint32_t)configMINIMAL_STACK_SIZE;
 8000e98:	6013      	str	r3, [r2, #0]
}
 8000e9a:	bc30      	pop	{r4, r5}
 8000e9c:	4770      	bx	lr
 8000e9e:	bf00      	nop
 8000ea0:	20000230 	.word	0x20000230
 8000ea4:	20000030 	.word	0x20000030

08000ea8 <vApplicationGetTimerTaskMemory>:
  equals to 1 and is required for static memory allocation support.
*/
void vApplicationGetTimerTaskMemory (StaticTask_t **ppxTimerTaskTCBBuffer, StackType_t **ppxTimerTaskStackBuffer, uint32_t *pulTimerTaskStackSize) {
  *ppxTimerTaskTCBBuffer   = &Timer_TCB;
  *ppxTimerTaskStackBuffer = &Timer_Stack[0];
  *pulTimerTaskStackSize   = (uint32_t)configTIMER_TASK_STACK_DEPTH;
 8000ea8:	f44f 7380 	mov.w	r3, #256	; 0x100
void vApplicationGetTimerTaskMemory (StaticTask_t **ppxTimerTaskTCBBuffer, StackType_t **ppxTimerTaskStackBuffer, uint32_t *pulTimerTaskStackSize) {
 8000eac:	b430      	push	{r4, r5}
  *ppxTimerTaskTCBBuffer   = &Timer_TCB;
 8000eae:	4d03      	ldr	r5, [pc, #12]	; (8000ebc <vApplicationGetTimerTaskMemory+0x14>)
  *ppxTimerTaskStackBuffer = &Timer_Stack[0];
 8000eb0:	4c03      	ldr	r4, [pc, #12]	; (8000ec0 <vApplicationGetTimerTaskMemory+0x18>)
  *ppxTimerTaskTCBBuffer   = &Timer_TCB;
 8000eb2:	6005      	str	r5, [r0, #0]
  *ppxTimerTaskStackBuffer = &Timer_Stack[0];
 8000eb4:	600c      	str	r4, [r1, #0]
  *pulTimerTaskStackSize   = (uint32_t)configTIMER_TASK_STACK_DEPTH;
 8000eb6:	6013      	str	r3, [r2, #0]
}
 8000eb8:	bc30      	pop	{r4, r5}
 8000eba:	4770      	bx	lr
 8000ebc:	20000690 	.word	0x20000690
 8000ec0:	20000290 	.word	0x20000290

08000ec4 <vListInitialise>:
	as the only list entry. */
	pxList->pxIndex = ( ListItem_t * ) &( pxList->xListEnd );			/*lint !e826 !e740 The mini list structure is used as the list end to save RAM.  This is checked and valid. */

	/* The list end value is the highest possible value in the list to
	ensure it remains at the end of the list. */
	pxList->xListEnd.xItemValue = portMAX_DELAY;
 8000ec4:	f04f 31ff 	mov.w	r1, #4294967295
	/* The list end next and previous pointers point to itself so we know
	when the list is empty. */
	pxList->xListEnd.pxNext = ( ListItem_t * ) &( pxList->xListEnd );	/*lint !e826 !e740 The mini list structure is used as the list end to save RAM.  This is checked and valid. */
	pxList->xListEnd.pxPrevious = ( ListItem_t * ) &( pxList->xListEnd );/*lint !e826 !e740 The mini list structure is used as the list end to save RAM.  This is checked and valid. */

	pxList->uxNumberOfItems = ( UBaseType_t ) 0U;
 8000ec8:	2200      	movs	r2, #0
	pxList->pxIndex = ( ListItem_t * ) &( pxList->xListEnd );			/*lint !e826 !e740 The mini list structure is used as the list end to save RAM.  This is checked and valid. */
 8000eca:	f100 0308 	add.w	r3, r0, #8
	pxList->xListEnd.xItemValue = portMAX_DELAY;
 8000ece:	6081      	str	r1, [r0, #8]
	pxList->uxNumberOfItems = ( UBaseType_t ) 0U;
 8000ed0:	6002      	str	r2, [r0, #0]
	pxList->pxIndex = ( ListItem_t * ) &( pxList->xListEnd );			/*lint !e826 !e740 The mini list structure is used as the list end to save RAM.  This is checked and valid. */
 8000ed2:	6043      	str	r3, [r0, #4]
	pxList->xListEnd.pxPrevious = ( ListItem_t * ) &( pxList->xListEnd );/*lint !e826 !e740 The mini list structure is used as the list end to save RAM.  This is checked and valid. */
 8000ed4:	e9c0 3303 	strd	r3, r3, [r0, #12]

	/* Write known values into the list if
	configUSE_LIST_DATA_INTEGRITY_CHECK_BYTES is set to 1. */
	listSET_LIST_INTEGRITY_CHECK_1_VALUE( pxList );
	listSET_LIST_INTEGRITY_CHECK_2_VALUE( pxList );
}
 8000ed8:	4770      	bx	lr
 8000eda:	bf00      	nop

08000edc <vListInitialiseItem>:
/*-----------------------------------------------------------*/

void vListInitialiseItem( ListItem_t * const pxItem )
{
	/* Make sure the list item is not recorded as being on a list. */
	pxItem->pvContainer = NULL;
 8000edc:	2300      	movs	r3, #0
 8000ede:	6103      	str	r3, [r0, #16]

	/* Write known values into the list item if
	configUSE_LIST_DATA_INTEGRITY_CHECK_BYTES is set to 1. */
	listSET_FIRST_LIST_ITEM_INTEGRITY_CHECK_VALUE( pxItem );
	listSET_SECOND_LIST_ITEM_INTEGRITY_CHECK_VALUE( pxItem );
}
 8000ee0:	4770      	bx	lr
 8000ee2:	bf00      	nop

08000ee4 <vListInsertEnd>:
/*-----------------------------------------------------------*/

void vListInsertEnd( List_t * const pxList, ListItem_t * const pxNewListItem )
{
ListItem_t * const pxIndex = pxList->pxIndex;
 8000ee4:	6843      	ldr	r3, [r0, #4]
{
 8000ee6:	b410      	push	{r4}

	/* Insert a new list item into pxList, but rather than sort the list,
	makes the new list item the last item to be removed by a call to
	listGET_OWNER_OF_NEXT_ENTRY(). */
	pxNewListItem->pxNext = pxIndex;
	pxNewListItem->pxPrevious = pxIndex->pxPrevious;
 8000ee8:	689c      	ldr	r4, [r3, #8]
	pxIndex->pxPrevious = pxNewListItem;

	/* Remember which list the item is in. */
	pxNewListItem->pvContainer = ( void * ) pxList;

	( pxList->uxNumberOfItems )++;
 8000eea:	6802      	ldr	r2, [r0, #0]
	pxNewListItem->pxPrevious = pxIndex->pxPrevious;
 8000eec:	608c      	str	r4, [r1, #8]
	pxIndex->pxPrevious->pxNext = pxNewListItem;
 8000eee:	689c      	ldr	r4, [r3, #8]
	( pxList->uxNumberOfItems )++;
 8000ef0:	3201      	adds	r2, #1
	pxNewListItem->pxNext = pxIndex;
 8000ef2:	604b      	str	r3, [r1, #4]
	pxIndex->pxPrevious->pxNext = pxNewListItem;
 8000ef4:	6061      	str	r1, [r4, #4]
	pxIndex->pxPrevious = pxNewListItem;
 8000ef6:	6099      	str	r1, [r3, #8]
}
 8000ef8:	bc10      	pop	{r4}
	pxNewListItem->pvContainer = ( void * ) pxList;
 8000efa:	6108      	str	r0, [r1, #16]
	( pxList->uxNumberOfItems )++;
 8000efc:	6002      	str	r2, [r0, #0]
}
 8000efe:	4770      	bx	lr

08000f00 <vListInsert>:
/*-----------------------------------------------------------*/

void vListInsert( List_t * const pxList, ListItem_t * const pxNewListItem )
{
 8000f00:	b430      	push	{r4, r5}
ListItem_t *pxIterator;
const TickType_t xValueOfInsertion = pxNewListItem->xItemValue;
 8000f02:	680d      	ldr	r5, [r1, #0]
	new list item should be placed after it.  This ensures that TCB's which are
	stored in ready lists (all of which have the same xItemValue value) get a
	share of the CPU.  However, if the xItemValue is the same as the back marker
	the iteration loop below will not end.  Therefore the value is checked
	first, and the algorithm slightly modified if necessary. */
	if( xValueOfInsertion == portMAX_DELAY )
 8000f04:	1c6b      	adds	r3, r5, #1
 8000f06:	d011      	beq.n	8000f2c <vListInsert+0x2c>
			4) Using a queue or semaphore before it has been initialised or
			   before the scheduler has been started (are interrupts firing
			   before vTaskStartScheduler() has been called?).
		**********************************************************************/

		for( pxIterator = ( ListItem_t * ) &( pxList->xListEnd ); pxIterator->pxNext->xItemValue <= xValueOfInsertion; pxIterator = pxIterator->pxNext ) /*lint !e826 !e740 The mini list structure is used as the list end to save RAM.  This is checked and valid. */
 8000f08:	f100 0208 	add.w	r2, r0, #8
 8000f0c:	e000      	b.n	8000f10 <vListInsert+0x10>
 8000f0e:	461a      	mov	r2, r3
 8000f10:	6853      	ldr	r3, [r2, #4]
 8000f12:	681c      	ldr	r4, [r3, #0]
 8000f14:	42ac      	cmp	r4, r5
 8000f16:	d9fa      	bls.n	8000f0e <vListInsert+0xe>

	/* Remember which list the item is in.  This allows fast removal of the
	item later. */
	pxNewListItem->pvContainer = ( void * ) pxList;

	( pxList->uxNumberOfItems )++;
 8000f18:	6804      	ldr	r4, [r0, #0]
	pxNewListItem->pxNext = pxIterator->pxNext;
 8000f1a:	604b      	str	r3, [r1, #4]
	( pxList->uxNumberOfItems )++;
 8000f1c:	3401      	adds	r4, #1
	pxNewListItem->pxNext->pxPrevious = pxNewListItem;
 8000f1e:	6099      	str	r1, [r3, #8]
	pxNewListItem->pxPrevious = pxIterator;
 8000f20:	608a      	str	r2, [r1, #8]
	pxIterator->pxNext = pxNewListItem;
 8000f22:	6051      	str	r1, [r2, #4]
	pxNewListItem->pvContainer = ( void * ) pxList;
 8000f24:	6108      	str	r0, [r1, #16]
	( pxList->uxNumberOfItems )++;
 8000f26:	6004      	str	r4, [r0, #0]
}
 8000f28:	bc30      	pop	{r4, r5}
 8000f2a:	4770      	bx	lr
		pxIterator = pxList->xListEnd.pxPrevious;
 8000f2c:	6902      	ldr	r2, [r0, #16]
 8000f2e:	6853      	ldr	r3, [r2, #4]
 8000f30:	e7f2      	b.n	8000f18 <vListInsert+0x18>
 8000f32:	bf00      	nop

08000f34 <uxListRemove>:

UBaseType_t uxListRemove( ListItem_t * const pxItemToRemove )
{
/* The list item knows which list it is in.  Obtain the list from the list
item. */
List_t * const pxList = ( List_t * ) pxItemToRemove->pvContainer;
 8000f34:	6903      	ldr	r3, [r0, #16]
{
 8000f36:	b410      	push	{r4}

	pxItemToRemove->pxNext->pxPrevious = pxItemToRemove->pxPrevious;
 8000f38:	e9d0 2101 	ldrd	r2, r1, [r0, #4]

	/* Only used during decision coverage testing. */
	mtCOVERAGE_TEST_DELAY();

	/* Make sure the index is left pointing to a valid item. */
	if( pxList->pxIndex == pxItemToRemove )
 8000f3c:	685c      	ldr	r4, [r3, #4]
	pxItemToRemove->pxNext->pxPrevious = pxItemToRemove->pxPrevious;
 8000f3e:	6091      	str	r1, [r2, #8]
	pxItemToRemove->pxPrevious->pxNext = pxItemToRemove->pxNext;
 8000f40:	6881      	ldr	r1, [r0, #8]
	if( pxList->pxIndex == pxItemToRemove )
 8000f42:	4284      	cmp	r4, r0
	pxItemToRemove->pxPrevious->pxNext = pxItemToRemove->pxNext;
 8000f44:	604a      	str	r2, [r1, #4]
	{
		pxList->pxIndex = pxItemToRemove->pxPrevious;
 8000f46:	bf08      	it	eq
 8000f48:	6059      	streq	r1, [r3, #4]
	else
	{
		mtCOVERAGE_TEST_MARKER();
	}

	pxItemToRemove->pvContainer = NULL;
 8000f4a:	2100      	movs	r1, #0
	( pxList->uxNumberOfItems )--;
 8000f4c:	681a      	ldr	r2, [r3, #0]
	pxItemToRemove->pvContainer = NULL;
 8000f4e:	6101      	str	r1, [r0, #16]
	( pxList->uxNumberOfItems )--;
 8000f50:	3a01      	subs	r2, #1
 8000f52:	601a      	str	r2, [r3, #0]

	return pxList->uxNumberOfItems;
 8000f54:	6818      	ldr	r0, [r3, #0]
}
 8000f56:	bc10      	pop	{r4}
 8000f58:	4770      	bx	lr
 8000f5a:	bf00      	nop

08000f5c <xQueueGenericReset>:

BaseType_t xQueueGenericReset( QueueHandle_t xQueue, BaseType_t xNewQueue )
{
Queue_t * const pxQueue = ( Queue_t * ) xQueue;

	configASSERT( pxQueue );
 8000f5c:	b1e8      	cbz	r0, 8000f9a <xQueueGenericReset+0x3e>
{
 8000f5e:	b570      	push	{r4, r5, r6, lr}
 8000f60:	4604      	mov	r4, r0
 8000f62:	460d      	mov	r5, r1

	taskENTER_CRITICAL();
	{
		pxQueue->pcTail = pxQueue->pcHead + ( pxQueue->uxLength * pxQueue->uxItemSize );
		pxQueue->uxMessagesWaiting = ( UBaseType_t ) 0U;
 8000f64:	2600      	movs	r6, #0
	taskENTER_CRITICAL();
 8000f66:	f001 fc45 	bl	80027f4 <vPortEnterCritical>
		pxQueue->pcTail = pxQueue->pcHead + ( pxQueue->uxLength * pxQueue->uxItemSize );
 8000f6a:	e9d4 320f 	ldrd	r3, r2, [r4, #60]	; 0x3c
		pxQueue->pcWriteTo = pxQueue->pcHead;
		pxQueue->u.pcReadFrom = pxQueue->pcHead + ( ( pxQueue->uxLength - ( UBaseType_t ) 1U ) * pxQueue->uxItemSize );
		pxQueue->cRxLock = queueUNLOCKED;
 8000f6e:	20ff      	movs	r0, #255	; 0xff
		pxQueue->pcTail = pxQueue->pcHead + ( pxQueue->uxLength * pxQueue->uxItemSize );
 8000f70:	fb03 f302 	mul.w	r3, r3, r2
 8000f74:	6821      	ldr	r1, [r4, #0]
		pxQueue->u.pcReadFrom = pxQueue->pcHead + ( ( pxQueue->uxLength - ( UBaseType_t ) 1U ) * pxQueue->uxItemSize );
 8000f76:	1a9a      	subs	r2, r3, r2
 8000f78:	440a      	add	r2, r1
		pxQueue->pcTail = pxQueue->pcHead + ( pxQueue->uxLength * pxQueue->uxItemSize );
 8000f7a:	440b      	add	r3, r1
		pxQueue->uxMessagesWaiting = ( UBaseType_t ) 0U;
 8000f7c:	63a6      	str	r6, [r4, #56]	; 0x38
		pxQueue->u.pcReadFrom = pxQueue->pcHead + ( ( pxQueue->uxLength - ( UBaseType_t ) 1U ) * pxQueue->uxItemSize );
 8000f7e:	60e2      	str	r2, [r4, #12]
		pxQueue->cRxLock = queueUNLOCKED;
 8000f80:	f884 0044 	strb.w	r0, [r4, #68]	; 0x44
		pxQueue->pcWriteTo = pxQueue->pcHead;
 8000f84:	e9c4 3101 	strd	r3, r1, [r4, #4]
		pxQueue->cTxLock = queueUNLOCKED;
 8000f88:	f884 0045 	strb.w	r0, [r4, #69]	; 0x45

		if( xNewQueue == pdFALSE )
 8000f8c:	b975      	cbnz	r5, 8000fac <xQueueGenericReset+0x50>
			/* If there are tasks blocked waiting to read from the queue, then
			the tasks will remain blocked as after this function exits the queue
			will still be empty.  If there are tasks blocked waiting to write to
			the queue, then one should be unblocked as after this function exits
			it will be possible to write to it. */
			if( listLIST_IS_EMPTY( &( pxQueue->xTasksWaitingToSend ) ) == pdFALSE )
 8000f8e:	6923      	ldr	r3, [r4, #16]
 8000f90:	b9ab      	cbnz	r3, 8000fbe <xQueueGenericReset+0x62>
			/* Ensure the event queues start in the correct state. */
			vListInitialise( &( pxQueue->xTasksWaitingToSend ) );
			vListInitialise( &( pxQueue->xTasksWaitingToReceive ) );
		}
	}
	taskEXIT_CRITICAL();
 8000f92:	f001 fc51 	bl	8002838 <vPortExitCritical>

	/* A value is returned for calling semantic consistency with previous
	versions. */
	return pdPASS;
}
 8000f96:	2001      	movs	r0, #1
 8000f98:	bd70      	pop	{r4, r5, r6, pc}

portFORCE_INLINE static void vPortRaiseBASEPRI( void )
{
uint32_t ulNewBASEPRI;

	__asm volatile
 8000f9a:	f04f 0350 	mov.w	r3, #80	; 0x50
 8000f9e:	f383 8811 	msr	BASEPRI, r3
 8000fa2:	f3bf 8f6f 	isb	sy
 8000fa6:	f3bf 8f4f 	dsb	sy
 8000faa:	e7fe      	b.n	8000faa <xQueueGenericReset+0x4e>
			vListInitialise( &( pxQueue->xTasksWaitingToSend ) );
 8000fac:	f104 0010 	add.w	r0, r4, #16
 8000fb0:	f7ff ff88 	bl	8000ec4 <vListInitialise>
			vListInitialise( &( pxQueue->xTasksWaitingToReceive ) );
 8000fb4:	f104 0024 	add.w	r0, r4, #36	; 0x24
 8000fb8:	f7ff ff84 	bl	8000ec4 <vListInitialise>
 8000fbc:	e7e9      	b.n	8000f92 <xQueueGenericReset+0x36>
				if( xTaskRemoveFromEventList( &( pxQueue->xTasksWaitingToSend ) ) != pdFALSE )
 8000fbe:	f104 0010 	add.w	r0, r4, #16
 8000fc2:	f001 f8fd 	bl	80021c0 <xTaskRemoveFromEventList>
 8000fc6:	2800      	cmp	r0, #0
 8000fc8:	d0e3      	beq.n	8000f92 <xQueueGenericReset+0x36>
					queueYIELD_IF_USING_PREEMPTION();
 8000fca:	f04f 5280 	mov.w	r2, #268435456	; 0x10000000
 8000fce:	4b03      	ldr	r3, [pc, #12]	; (8000fdc <xQueueGenericReset+0x80>)
 8000fd0:	601a      	str	r2, [r3, #0]
 8000fd2:	f3bf 8f4f 	dsb	sy
 8000fd6:	f3bf 8f6f 	isb	sy
 8000fda:	e7da      	b.n	8000f92 <xQueueGenericReset+0x36>
 8000fdc:	e000ed04 	.word	0xe000ed04

08000fe0 <xQueueGenericCreateStatic>:
/*-----------------------------------------------------------*/

#if( configSUPPORT_STATIC_ALLOCATION == 1 )

	QueueHandle_t xQueueGenericCreateStatic( const UBaseType_t uxQueueLength, const UBaseType_t uxItemSize, uint8_t *pucQueueStorage, StaticQueue_t *pxStaticQueue, const uint8_t ucQueueType )
	{
 8000fe0:	b530      	push	{r4, r5, lr}
 8000fe2:	b083      	sub	sp, #12
 8000fe4:	f89d 5018 	ldrb.w	r5, [sp, #24]
	Queue_t *pxNewQueue;

		configASSERT( uxQueueLength > ( UBaseType_t ) 0 );
 8000fe8:	b940      	cbnz	r0, 8000ffc <xQueueGenericCreateStatic+0x1c>
 8000fea:	f04f 0350 	mov.w	r3, #80	; 0x50
 8000fee:	f383 8811 	msr	BASEPRI, r3
 8000ff2:	f3bf 8f6f 	isb	sy
 8000ff6:	f3bf 8f4f 	dsb	sy
 8000ffa:	e7fe      	b.n	8000ffa <xQueueGenericCreateStatic+0x1a>
 8000ffc:	461c      	mov	r4, r3

		/* The StaticQueue_t structure and the queue storage area must be
		supplied. */
		configASSERT( pxStaticQueue != NULL );
 8000ffe:	b17b      	cbz	r3, 8001020 <xQueueGenericCreateStatic+0x40>

		/* A queue storage area should be provided if the item size is not 0, and
		should not be provided if the item size is 0. */
		configASSERT( !( ( pucQueueStorage != NULL ) && ( uxItemSize == 0 ) ) );
 8001000:	b37a      	cbz	r2, 8001062 <xQueueGenericCreateStatic+0x82>
 8001002:	b1b1      	cbz	r1, 8001032 <xQueueGenericCreateStatic+0x52>
		#if( configASSERT_DEFINED == 1 )
		{
			/* Sanity check that the size of the structure used to declare a
			variable of type StaticQueue_t or StaticSemaphore_t equals the size of
			the real queue and semaphore structures. */
			volatile size_t xSize = sizeof( StaticQueue_t );
 8001004:	2350      	movs	r3, #80	; 0x50
 8001006:	9301      	str	r3, [sp, #4]
			configASSERT( xSize == sizeof( Queue_t ) );
 8001008:	9b01      	ldr	r3, [sp, #4]
 800100a:	2b50      	cmp	r3, #80	; 0x50
 800100c:	d01a      	beq.n	8001044 <xQueueGenericCreateStatic+0x64>
 800100e:	f04f 0350 	mov.w	r3, #80	; 0x50
 8001012:	f383 8811 	msr	BASEPRI, r3
 8001016:	f3bf 8f6f 	isb	sy
 800101a:	f3bf 8f4f 	dsb	sy
 800101e:	e7fe      	b.n	800101e <xQueueGenericCreateStatic+0x3e>
 8001020:	f04f 0350 	mov.w	r3, #80	; 0x50
 8001024:	f383 8811 	msr	BASEPRI, r3
 8001028:	f3bf 8f6f 	isb	sy
 800102c:	f3bf 8f4f 	dsb	sy
 8001030:	e7fe      	b.n	8001030 <xQueueGenericCreateStatic+0x50>
 8001032:	f04f 0350 	mov.w	r3, #80	; 0x50
 8001036:	f383 8811 	msr	BASEPRI, r3
 800103a:	f3bf 8f6f 	isb	sy
 800103e:	f3bf 8f4f 	dsb	sy
 8001042:	e7fe      	b.n	8001042 <xQueueGenericCreateStatic+0x62>
			#if( configSUPPORT_DYNAMIC_ALLOCATION == 1 )
			{
				/* Queues can be allocated wither statically or dynamically, so
				note this queue was allocated statically in case the queue is
				later deleted. */
				pxNewQueue->ucStaticallyAllocated = pdTRUE;
 8001044:	2301      	movs	r3, #1
 8001046:	f884 3046 	strb.w	r3, [r4, #70]	; 0x46
	}

	/* Initialise the queue members as described where the queue type is
	defined. */
	pxNewQueue->uxLength = uxQueueLength;
	pxNewQueue->uxItemSize = uxItemSize;
 800104a:	e9c4 010f 	strd	r0, r1, [r4, #60]	; 0x3c
 800104e:	6022      	str	r2, [r4, #0]
	( void ) xQueueGenericReset( pxNewQueue, pdTRUE );
 8001050:	2101      	movs	r1, #1
 8001052:	4620      	mov	r0, r4
 8001054:	f7ff ff82 	bl	8000f5c <xQueueGenericReset>
	}
 8001058:	4620      	mov	r0, r4

	#if ( configUSE_TRACE_FACILITY == 1 )
	{
		pxNewQueue->ucQueueType = ucQueueType;
 800105a:	f884 504c 	strb.w	r5, [r4, #76]	; 0x4c
	}
 800105e:	b003      	add	sp, #12
 8001060:	bd30      	pop	{r4, r5, pc}
		configASSERT( !( ( pucQueueStorage == NULL ) && ( uxItemSize != 0 ) ) );
 8001062:	b141      	cbz	r1, 8001076 <xQueueGenericCreateStatic+0x96>
 8001064:	f04f 0350 	mov.w	r3, #80	; 0x50
 8001068:	f383 8811 	msr	BASEPRI, r3
 800106c:	f3bf 8f6f 	isb	sy
 8001070:	f3bf 8f4f 	dsb	sy
 8001074:	e7fe      	b.n	8001074 <xQueueGenericCreateStatic+0x94>
			volatile size_t xSize = sizeof( StaticQueue_t );
 8001076:	2350      	movs	r3, #80	; 0x50
 8001078:	9301      	str	r3, [sp, #4]
			configASSERT( xSize == sizeof( Queue_t ) );
 800107a:	9b01      	ldr	r3, [sp, #4]
 800107c:	2b50      	cmp	r3, #80	; 0x50
 800107e:	d1c6      	bne.n	800100e <xQueueGenericCreateStatic+0x2e>
				pxNewQueue->ucStaticallyAllocated = pdTRUE;
 8001080:	2301      	movs	r3, #1
 8001082:	4622      	mov	r2, r4
 8001084:	f884 3046 	strb.w	r3, [r4, #70]	; 0x46
 8001088:	e7df      	b.n	800104a <xQueueGenericCreateStatic+0x6a>
 800108a:	bf00      	nop

0800108c <xQueueGenericSend>:

#endif /* ( ( configUSE_COUNTING_SEMAPHORES == 1 ) && ( configSUPPORT_DYNAMIC_ALLOCATION == 1 ) ) */
/*-----------------------------------------------------------*/

BaseType_t xQueueGenericSend( QueueHandle_t xQueue, const void * const pvItemToQueue, TickType_t xTicksToWait, const BaseType_t xCopyPosition )
{
 800108c:	e92d 4ff0 	stmdb	sp!, {r4, r5, r6, r7, r8, r9, sl, fp, lr}
 8001090:	b085      	sub	sp, #20
 8001092:	9201      	str	r2, [sp, #4]
BaseType_t xEntryTimeSet = pdFALSE, xYieldRequired;
TimeOut_t xTimeOut;
Queue_t * const pxQueue = ( Queue_t * ) xQueue;

	configASSERT( pxQueue );
 8001094:	2800      	cmp	r0, #0
 8001096:	f000 8125 	beq.w	80012e4 <xQueueGenericSend+0x258>
	configASSERT( !( ( pvItemToQueue == NULL ) && ( pxQueue->uxItemSize != ( UBaseType_t ) 0U ) ) );
 800109a:	2900      	cmp	r1, #0
 800109c:	f000 8115 	beq.w	80012ca <xQueueGenericSend+0x23e>
	configASSERT( !( ( xCopyPosition == queueOVERWRITE ) && ( pxQueue->uxLength != 1 ) ) );
 80010a0:	2b02      	cmp	r3, #2
 80010a2:	d10b      	bne.n	80010bc <xQueueGenericSend+0x30>
 80010a4:	6bc2      	ldr	r2, [r0, #60]	; 0x3c
 80010a6:	2a01      	cmp	r2, #1
 80010a8:	d008      	beq.n	80010bc <xQueueGenericSend+0x30>
 80010aa:	f04f 0350 	mov.w	r3, #80	; 0x50
 80010ae:	f383 8811 	msr	BASEPRI, r3
 80010b2:	f3bf 8f6f 	isb	sy
 80010b6:	f3bf 8f4f 	dsb	sy
 80010ba:	e7fe      	b.n	80010ba <xQueueGenericSend+0x2e>
 80010bc:	4604      	mov	r4, r0
 80010be:	461f      	mov	r7, r3
 80010c0:	460e      	mov	r6, r1
	#if ( ( INCLUDE_xTaskGetSchedulerState == 1 ) || ( configUSE_TIMERS == 1 ) )
	{
		configASSERT( !( ( xTaskGetSchedulerState() == taskSCHEDULER_SUSPENDED ) && ( xTicksToWait != 0 ) ) );
 80010c2:	f001 f91b 	bl	80022fc <xTaskGetSchedulerState>
 80010c6:	2800      	cmp	r0, #0
 80010c8:	f040 80fc 	bne.w	80012c4 <xQueueGenericSend+0x238>
 80010cc:	9b01      	ldr	r3, [sp, #4]
 80010ce:	b143      	cbz	r3, 80010e2 <xQueueGenericSend+0x56>
 80010d0:	f04f 0350 	mov.w	r3, #80	; 0x50
 80010d4:	f383 8811 	msr	BASEPRI, r3
 80010d8:	f3bf 8f6f 	isb	sy
 80010dc:	f3bf 8f4f 	dsb	sy
 80010e0:	e7fe      	b.n	80010e0 <xQueueGenericSend+0x54>
 80010e2:	469a      	mov	sl, r3
	/* This function relaxes the coding standard somewhat to allow return
	statements within the function itself.  This is done in the interest
	of execution time efficiency. */
	for( ;; )
	{
		taskENTER_CRITICAL();
 80010e4:	f001 fb86 	bl	80027f4 <vPortEnterCritical>
		{
			/* Is there room on the queue now?  The running task must be the
			highest priority task wanting to access the queue.  If the head item
			in the queue is to be overwritten then it does not matter if the
			queue is full. */
			if( ( pxQueue->uxMessagesWaiting < pxQueue->uxLength ) || ( xCopyPosition == queueOVERWRITE ) )
 80010e8:	6ba2      	ldr	r2, [r4, #56]	; 0x38
 80010ea:	6be3      	ldr	r3, [r4, #60]	; 0x3c

		/* Interrupts and other tasks can send to and receive from the queue
		now the critical section has been exited. */

		vTaskSuspendAll();
		prvLockQueue( pxQueue );
 80010ec:	f04f 0800 	mov.w	r8, #0
			if( ( pxQueue->uxMessagesWaiting < pxQueue->uxLength ) || ( xCopyPosition == queueOVERWRITE ) )
 80010f0:	429a      	cmp	r2, r3
				task is already in a ready list before it yields - in which
				case the yield will not cause a context switch unless there
				is also a higher priority task in the pending ready list. */
				if( xTaskResumeAll() == pdFALSE )
				{
					portYIELD_WITHIN_API();
 80010f2:	f8df 932c 	ldr.w	r9, [pc, #812]	; 8001420 <xQueueGenericSend+0x394>
			if( ( pxQueue->uxMessagesWaiting < pxQueue->uxLength ) || ( xCopyPosition == queueOVERWRITE ) )
 80010f6:	d375      	bcc.n	80011e4 <xQueueGenericSend+0x158>
 80010f8:	2f02      	cmp	r7, #2
 80010fa:	f000 80fc 	beq.w	80012f6 <xQueueGenericSend+0x26a>
				if( xTicksToWait == ( TickType_t ) 0 )
 80010fe:	9d01      	ldr	r5, [sp, #4]
 8001100:	2d00      	cmp	r5, #0
 8001102:	f000 8161 	beq.w	80013c8 <xQueueGenericSend+0x33c>
				else if( xEntryTimeSet == pdFALSE )
 8001106:	f1ba 0f00 	cmp.w	sl, #0
 800110a:	d102      	bne.n	8001112 <xQueueGenericSend+0x86>
					vTaskInternalSetTimeOutState( &xTimeOut );
 800110c:	a802      	add	r0, sp, #8
 800110e:	f001 f89d 	bl	800224c <vTaskInternalSetTimeOutState>
		taskEXIT_CRITICAL();
 8001112:	f001 fb91 	bl	8002838 <vPortExitCritical>
		vTaskSuspendAll();
 8001116:	f000 fe25 	bl	8001d64 <vTaskSuspendAll>
		prvLockQueue( pxQueue );
 800111a:	f001 fb6b 	bl	80027f4 <vPortEnterCritical>
 800111e:	f894 3044 	ldrb.w	r3, [r4, #68]	; 0x44
 8001122:	2bff      	cmp	r3, #255	; 0xff
 8001124:	bf08      	it	eq
 8001126:	f884 8044 	strbeq.w	r8, [r4, #68]	; 0x44
 800112a:	f894 3045 	ldrb.w	r3, [r4, #69]	; 0x45
 800112e:	2bff      	cmp	r3, #255	; 0xff
 8001130:	bf08      	it	eq
 8001132:	f884 8045 	strbeq.w	r8, [r4, #69]	; 0x45
 8001136:	f001 fb7f 	bl	8002838 <vPortExitCritical>
		if( xTaskCheckForTimeOut( &xTimeOut, &xTicksToWait ) == pdFALSE )
 800113a:	a901      	add	r1, sp, #4
 800113c:	a802      	add	r0, sp, #8
 800113e:	f001 f891 	bl	8002264 <xTaskCheckForTimeOut>
 8001142:	2800      	cmp	r0, #0
 8001144:	f040 8126 	bne.w	8001394 <xQueueGenericSend+0x308>

static BaseType_t prvIsQueueFull( const Queue_t *pxQueue )
{
BaseType_t xReturn;

	taskENTER_CRITICAL();
 8001148:	f001 fb54 	bl	80027f4 <vPortEnterCritical>
	{
		if( pxQueue->uxMessagesWaiting == pxQueue->uxLength )
 800114c:	6ba2      	ldr	r2, [r4, #56]	; 0x38
 800114e:	6be3      	ldr	r3, [r4, #60]	; 0x3c
 8001150:	429a      	cmp	r2, r3
 8001152:	d06a      	beq.n	800122a <xQueueGenericSend+0x19e>
		else
		{
			xReturn = pdFALSE;
		}
	}
	taskEXIT_CRITICAL();
 8001154:	f001 fb70 	bl	8002838 <vPortExitCritical>
	taskENTER_CRITICAL();
 8001158:	f001 fb4c 	bl	80027f4 <vPortEnterCritical>
		int8_t cTxLock = pxQueue->cTxLock;
 800115c:	f894 5045 	ldrb.w	r5, [r4, #69]	; 0x45
 8001160:	b26d      	sxtb	r5, r5
		while( cTxLock > queueLOCKED_UNMODIFIED )
 8001162:	2d00      	cmp	r5, #0
 8001164:	dd11      	ble.n	800118a <xQueueGenericSend+0xfe>
				if( listLIST_IS_EMPTY( &( pxQueue->xTasksWaitingToReceive ) ) == pdFALSE )
 8001166:	6a63      	ldr	r3, [r4, #36]	; 0x24
 8001168:	b17b      	cbz	r3, 800118a <xQueueGenericSend+0xfe>
 800116a:	f104 0a24 	add.w	sl, r4, #36	; 0x24
 800116e:	e001      	b.n	8001174 <xQueueGenericSend+0xe8>
 8001170:	6a63      	ldr	r3, [r4, #36]	; 0x24
 8001172:	b153      	cbz	r3, 800118a <xQueueGenericSend+0xfe>
					if( xTaskRemoveFromEventList( &( pxQueue->xTasksWaitingToReceive ) ) != pdFALSE )
 8001174:	4650      	mov	r0, sl
 8001176:	f001 f823 	bl	80021c0 <xTaskRemoveFromEventList>
 800117a:	b108      	cbz	r0, 8001180 <xQueueGenericSend+0xf4>
						vTaskMissedYield();
 800117c:	f001 f8b8 	bl	80022f0 <vTaskMissedYield>
 8001180:	3d01      	subs	r5, #1
 8001182:	b2eb      	uxtb	r3, r5
 8001184:	b25d      	sxtb	r5, r3
		while( cTxLock > queueLOCKED_UNMODIFIED )
 8001186:	2b00      	cmp	r3, #0
 8001188:	d1f2      	bne.n	8001170 <xQueueGenericSend+0xe4>
		pxQueue->cTxLock = queueUNLOCKED;
 800118a:	23ff      	movs	r3, #255	; 0xff
 800118c:	f884 3045 	strb.w	r3, [r4, #69]	; 0x45
	taskEXIT_CRITICAL();
 8001190:	f001 fb52 	bl	8002838 <vPortExitCritical>
	taskENTER_CRITICAL();
 8001194:	f001 fb2e 	bl	80027f4 <vPortEnterCritical>
		int8_t cRxLock = pxQueue->cRxLock;
 8001198:	f894 5044 	ldrb.w	r5, [r4, #68]	; 0x44
 800119c:	b26d      	sxtb	r5, r5
		while( cRxLock > queueLOCKED_UNMODIFIED )
 800119e:	2d00      	cmp	r5, #0
 80011a0:	dd11      	ble.n	80011c6 <xQueueGenericSend+0x13a>
			if( listLIST_IS_EMPTY( &( pxQueue->xTasksWaitingToSend ) ) == pdFALSE )
 80011a2:	6923      	ldr	r3, [r4, #16]
 80011a4:	b17b      	cbz	r3, 80011c6 <xQueueGenericSend+0x13a>
 80011a6:	f104 0a10 	add.w	sl, r4, #16
 80011aa:	e001      	b.n	80011b0 <xQueueGenericSend+0x124>
 80011ac:	6923      	ldr	r3, [r4, #16]
 80011ae:	b153      	cbz	r3, 80011c6 <xQueueGenericSend+0x13a>
				if( xTaskRemoveFromEventList( &( pxQueue->xTasksWaitingToSend ) ) != pdFALSE )
 80011b0:	4650      	mov	r0, sl
 80011b2:	f001 f805 	bl	80021c0 <xTaskRemoveFromEventList>
 80011b6:	b108      	cbz	r0, 80011bc <xQueueGenericSend+0x130>
					vTaskMissedYield();
 80011b8:	f001 f89a 	bl	80022f0 <vTaskMissedYield>
 80011bc:	3d01      	subs	r5, #1
 80011be:	b2eb      	uxtb	r3, r5
 80011c0:	b25d      	sxtb	r5, r3
		while( cRxLock > queueLOCKED_UNMODIFIED )
 80011c2:	2b00      	cmp	r3, #0
 80011c4:	d1f2      	bne.n	80011ac <xQueueGenericSend+0x120>
		pxQueue->cRxLock = queueUNLOCKED;
 80011c6:	23ff      	movs	r3, #255	; 0xff
 80011c8:	f884 3044 	strb.w	r3, [r4, #68]	; 0x44
	taskEXIT_CRITICAL();
 80011cc:	f001 fb34 	bl	8002838 <vPortExitCritical>
				( void ) xTaskResumeAll();
 80011d0:	f000 fe7a 	bl	8001ec8 <xTaskResumeAll>
		taskENTER_CRITICAL();
 80011d4:	f001 fb0e 	bl	80027f4 <vPortEnterCritical>
			if( ( pxQueue->uxMessagesWaiting < pxQueue->uxLength ) || ( xCopyPosition == queueOVERWRITE ) )
 80011d8:	6ba2      	ldr	r2, [r4, #56]	; 0x38
 80011da:	6be3      	ldr	r3, [r4, #60]	; 0x3c
 80011dc:	f04f 0a01 	mov.w	sl, #1
 80011e0:	429a      	cmp	r2, r3
 80011e2:	d289      	bcs.n	80010f8 <xQueueGenericSend+0x6c>
	if( pxQueue->uxItemSize == ( UBaseType_t ) 0 )
 80011e4:	6c22      	ldr	r2, [r4, #64]	; 0x40
	uxMessagesWaiting = pxQueue->uxMessagesWaiting;
 80011e6:	6ba5      	ldr	r5, [r4, #56]	; 0x38
	if( pxQueue->uxItemSize == ( UBaseType_t ) 0 )
 80011e8:	2a00      	cmp	r2, #0
 80011ea:	f000 8087 	beq.w	80012fc <xQueueGenericSend+0x270>
		( void ) memcpy( ( void * ) pxQueue->pcWriteTo, pvItemToQueue, ( size_t ) pxQueue->uxItemSize ); /*lint !e961 !e418 MISRA exception as the casts are only redundant for some ports, plus previous logic ensures a null pointer can only be passed to memcpy() if the copy size is 0. */
 80011ee:	4631      	mov	r1, r6
	else if( xPosition == queueSEND_TO_BACK )
 80011f0:	2f00      	cmp	r7, #0
 80011f2:	f040 80bb 	bne.w	800136c <xQueueGenericSend+0x2e0>
		( void ) memcpy( ( void * ) pxQueue->pcWriteTo, pvItemToQueue, ( size_t ) pxQueue->uxItemSize ); /*lint !e961 !e418 MISRA exception as the casts are only redundant for some ports, plus previous logic ensures a null pointer can only be passed to memcpy() if the copy size is 0. */
 80011f6:	68a0      	ldr	r0, [r4, #8]
 80011f8:	f001 fcfc 	bl	8002bf4 <memcpy>
		pxQueue->pcWriteTo += pxQueue->uxItemSize;
 80011fc:	68a3      	ldr	r3, [r4, #8]
 80011fe:	6c21      	ldr	r1, [r4, #64]	; 0x40
		if( pxQueue->pcWriteTo >= pxQueue->pcTail ) /*lint !e946 MISRA exception justified as comparison of pointers is the cleanest solution. */
 8001200:	6862      	ldr	r2, [r4, #4]
		pxQueue->pcWriteTo += pxQueue->uxItemSize;
 8001202:	440b      	add	r3, r1
		if( pxQueue->pcWriteTo >= pxQueue->pcTail ) /*lint !e946 MISRA exception justified as comparison of pointers is the cleanest solution. */
 8001204:	4293      	cmp	r3, r2
 8001206:	f105 0501 	add.w	r5, r5, #1
		pxQueue->pcWriteTo += pxQueue->uxItemSize;
 800120a:	60a3      	str	r3, [r4, #8]
		if( pxQueue->pcWriteTo >= pxQueue->pcTail ) /*lint !e946 MISRA exception justified as comparison of pointers is the cleanest solution. */
 800120c:	d379      	bcc.n	8001302 <xQueueGenericSend+0x276>
	pxQueue->uxMessagesWaiting = uxMessagesWaiting + ( UBaseType_t ) 1;
 800120e:	63a5      	str	r5, [r4, #56]	; 0x38
			pxQueue->pcWriteTo = pxQueue->pcHead;
 8001210:	6822      	ldr	r2, [r4, #0]
					if( listLIST_IS_EMPTY( &( pxQueue->xTasksWaitingToReceive ) ) == pdFALSE )
 8001212:	6a63      	ldr	r3, [r4, #36]	; 0x24
			pxQueue->pcWriteTo = pxQueue->pcHead;
 8001214:	60a2      	str	r2, [r4, #8]
					if( listLIST_IS_EMPTY( &( pxQueue->xTasksWaitingToReceive ) ) == pdFALSE )
 8001216:	2b00      	cmp	r3, #0
 8001218:	d077      	beq.n	800130a <xQueueGenericSend+0x27e>
						if( xTaskRemoveFromEventList( &( pxQueue->xTasksWaitingToReceive ) ) != pdFALSE )
 800121a:	f104 0024 	add.w	r0, r4, #36	; 0x24
 800121e:	f000 ffcf 	bl	80021c0 <xTaskRemoveFromEventList>
 8001222:	2800      	cmp	r0, #0
 8001224:	f040 8082 	bne.w	800132c <xQueueGenericSend+0x2a0>
 8001228:	e06f      	b.n	800130a <xQueueGenericSend+0x27e>
				vTaskPlaceOnEventList( &( pxQueue->xTasksWaitingToSend ), xTicksToWait );
 800122a:	f104 0a10 	add.w	sl, r4, #16
	taskEXIT_CRITICAL();
 800122e:	f001 fb03 	bl	8002838 <vPortExitCritical>
				vTaskPlaceOnEventList( &( pxQueue->xTasksWaitingToSend ), xTicksToWait );
 8001232:	4650      	mov	r0, sl
 8001234:	9901      	ldr	r1, [sp, #4]
 8001236:	f000 ff35 	bl	80020a4 <vTaskPlaceOnEventList>
	taskENTER_CRITICAL();
 800123a:	f001 fadb 	bl	80027f4 <vPortEnterCritical>
		int8_t cTxLock = pxQueue->cTxLock;
 800123e:	f894 5045 	ldrb.w	r5, [r4, #69]	; 0x45
 8001242:	b26d      	sxtb	r5, r5
		while( cTxLock > queueLOCKED_UNMODIFIED )
 8001244:	2d00      	cmp	r5, #0
 8001246:	dd11      	ble.n	800126c <xQueueGenericSend+0x1e0>
				if( listLIST_IS_EMPTY( &( pxQueue->xTasksWaitingToReceive ) ) == pdFALSE )
 8001248:	6a63      	ldr	r3, [r4, #36]	; 0x24
 800124a:	b17b      	cbz	r3, 800126c <xQueueGenericSend+0x1e0>
 800124c:	f104 0b24 	add.w	fp, r4, #36	; 0x24
 8001250:	e001      	b.n	8001256 <xQueueGenericSend+0x1ca>
 8001252:	6a63      	ldr	r3, [r4, #36]	; 0x24
 8001254:	b153      	cbz	r3, 800126c <xQueueGenericSend+0x1e0>
					if( xTaskRemoveFromEventList( &( pxQueue->xTasksWaitingToReceive ) ) != pdFALSE )
 8001256:	4658      	mov	r0, fp
 8001258:	f000 ffb2 	bl	80021c0 <xTaskRemoveFromEventList>
 800125c:	b108      	cbz	r0, 8001262 <xQueueGenericSend+0x1d6>
						vTaskMissedYield();
 800125e:	f001 f847 	bl	80022f0 <vTaskMissedYield>
 8001262:	3d01      	subs	r5, #1
 8001264:	b2eb      	uxtb	r3, r5
 8001266:	b25d      	sxtb	r5, r3
		while( cTxLock > queueLOCKED_UNMODIFIED )
 8001268:	2b00      	cmp	r3, #0
 800126a:	d1f2      	bne.n	8001252 <xQueueGenericSend+0x1c6>
		pxQueue->cTxLock = queueUNLOCKED;
 800126c:	23ff      	movs	r3, #255	; 0xff
 800126e:	f884 3045 	strb.w	r3, [r4, #69]	; 0x45
	taskEXIT_CRITICAL();
 8001272:	f001 fae1 	bl	8002838 <vPortExitCritical>
	taskENTER_CRITICAL();
 8001276:	f001 fabd 	bl	80027f4 <vPortEnterCritical>
		int8_t cRxLock = pxQueue->cRxLock;
 800127a:	f894 5044 	ldrb.w	r5, [r4, #68]	; 0x44
 800127e:	b26d      	sxtb	r5, r5
		while( cRxLock > queueLOCKED_UNMODIFIED )
 8001280:	2d00      	cmp	r5, #0
 8001282:	dc0a      	bgt.n	800129a <xQueueGenericSend+0x20e>
 8001284:	e00c      	b.n	80012a0 <xQueueGenericSend+0x214>
				if( xTaskRemoveFromEventList( &( pxQueue->xTasksWaitingToSend ) ) != pdFALSE )
 8001286:	4650      	mov	r0, sl
 8001288:	f000 ff9a 	bl	80021c0 <xTaskRemoveFromEventList>
 800128c:	b108      	cbz	r0, 8001292 <xQueueGenericSend+0x206>
					vTaskMissedYield();
 800128e:	f001 f82f 	bl	80022f0 <vTaskMissedYield>
 8001292:	3d01      	subs	r5, #1
 8001294:	b2eb      	uxtb	r3, r5
 8001296:	b25d      	sxtb	r5, r3
		while( cRxLock > queueLOCKED_UNMODIFIED )
 8001298:	b113      	cbz	r3, 80012a0 <xQueueGenericSend+0x214>
			if( listLIST_IS_EMPTY( &( pxQueue->xTasksWaitingToSend ) ) == pdFALSE )
 800129a:	6923      	ldr	r3, [r4, #16]
 800129c:	2b00      	cmp	r3, #0
 800129e:	d1f2      	bne.n	8001286 <xQueueGenericSend+0x1fa>
		pxQueue->cRxLock = queueUNLOCKED;
 80012a0:	23ff      	movs	r3, #255	; 0xff
 80012a2:	f884 3044 	strb.w	r3, [r4, #68]	; 0x44
	taskEXIT_CRITICAL();
 80012a6:	f001 fac7 	bl	8002838 <vPortExitCritical>
				if( xTaskResumeAll() == pdFALSE )
 80012aa:	f000 fe0d 	bl	8001ec8 <xTaskResumeAll>
 80012ae:	2800      	cmp	r0, #0
 80012b0:	d190      	bne.n	80011d4 <xQueueGenericSend+0x148>
					portYIELD_WITHIN_API();
 80012b2:	f04f 5380 	mov.w	r3, #268435456	; 0x10000000
 80012b6:	f8c9 3000 	str.w	r3, [r9]
 80012ba:	f3bf 8f4f 	dsb	sy
 80012be:	f3bf 8f6f 	isb	sy
 80012c2:	e787      	b.n	80011d4 <xQueueGenericSend+0x148>
 80012c4:	f04f 0a00 	mov.w	sl, #0
 80012c8:	e70c      	b.n	80010e4 <xQueueGenericSend+0x58>
	configASSERT( !( ( pvItemToQueue == NULL ) && ( pxQueue->uxItemSize != ( UBaseType_t ) 0U ) ) );
 80012ca:	6c02      	ldr	r2, [r0, #64]	; 0x40
 80012cc:	2a00      	cmp	r2, #0
 80012ce:	f43f aee7 	beq.w	80010a0 <xQueueGenericSend+0x14>
 80012d2:	f04f 0350 	mov.w	r3, #80	; 0x50
 80012d6:	f383 8811 	msr	BASEPRI, r3
 80012da:	f3bf 8f6f 	isb	sy
 80012de:	f3bf 8f4f 	dsb	sy
 80012e2:	e7fe      	b.n	80012e2 <xQueueGenericSend+0x256>
 80012e4:	f04f 0350 	mov.w	r3, #80	; 0x50
 80012e8:	f383 8811 	msr	BASEPRI, r3
 80012ec:	f3bf 8f6f 	isb	sy
 80012f0:	f3bf 8f4f 	dsb	sy
 80012f4:	e7fe      	b.n	80012f4 <xQueueGenericSend+0x268>
	if( pxQueue->uxItemSize == ( UBaseType_t ) 0 )
 80012f6:	6c22      	ldr	r2, [r4, #64]	; 0x40
	uxMessagesWaiting = pxQueue->uxMessagesWaiting;
 80012f8:	6ba5      	ldr	r5, [r4, #56]	; 0x38
	if( pxQueue->uxItemSize == ( UBaseType_t ) 0 )
 80012fa:	bb02      	cbnz	r2, 800133e <xQueueGenericSend+0x2b2>
			if( pxQueue->uxQueueType == queueQUEUE_IS_MUTEX )
 80012fc:	6826      	ldr	r6, [r4, #0]
 80012fe:	3501      	adds	r5, #1
 8001300:	b14e      	cbz	r6, 8001316 <xQueueGenericSend+0x28a>
	pxQueue->uxMessagesWaiting = uxMessagesWaiting + ( UBaseType_t ) 1;
 8001302:	63a5      	str	r5, [r4, #56]	; 0x38
					if( listLIST_IS_EMPTY( &( pxQueue->xTasksWaitingToReceive ) ) == pdFALSE )
 8001304:	6a63      	ldr	r3, [r4, #36]	; 0x24
 8001306:	2b00      	cmp	r3, #0
 8001308:	d187      	bne.n	800121a <xQueueGenericSend+0x18e>
				taskEXIT_CRITICAL();
 800130a:	f001 fa95 	bl	8002838 <vPortExitCritical>
				return pdPASS;
 800130e:	2001      	movs	r0, #1
}
 8001310:	b005      	add	sp, #20
 8001312:	e8bd 8ff0 	ldmia.w	sp!, {r4, r5, r6, r7, r8, r9, sl, fp, pc}
				xReturn = xTaskPriorityDisinherit( ( void * ) pxQueue->pxMutexHolder );
 8001316:	6860      	ldr	r0, [r4, #4]
 8001318:	f001 f800 	bl	800231c <xTaskPriorityDisinherit>
	pxQueue->uxMessagesWaiting = uxMessagesWaiting + ( UBaseType_t ) 1;
 800131c:	63a5      	str	r5, [r4, #56]	; 0x38
					if( listLIST_IS_EMPTY( &( pxQueue->xTasksWaitingToReceive ) ) == pdFALSE )
 800131e:	6a63      	ldr	r3, [r4, #36]	; 0x24
				pxQueue->pxMutexHolder = NULL;
 8001320:	6066      	str	r6, [r4, #4]
					if( listLIST_IS_EMPTY( &( pxQueue->xTasksWaitingToReceive ) ) == pdFALSE )
 8001322:	2b00      	cmp	r3, #0
 8001324:	f47f af79 	bne.w	800121a <xQueueGenericSend+0x18e>
					else if( xYieldRequired != pdFALSE )
 8001328:	2800      	cmp	r0, #0
 800132a:	d0ee      	beq.n	800130a <xQueueGenericSend+0x27e>
						queueYIELD_IF_USING_PREEMPTION();
 800132c:	f04f 5280 	mov.w	r2, #268435456	; 0x10000000
 8001330:	4b3b      	ldr	r3, [pc, #236]	; (8001420 <xQueueGenericSend+0x394>)
 8001332:	601a      	str	r2, [r3, #0]
 8001334:	f3bf 8f4f 	dsb	sy
 8001338:	f3bf 8f6f 	isb	sy
 800133c:	e7e5      	b.n	800130a <xQueueGenericSend+0x27e>
		( void ) memcpy( ( void * ) pxQueue->u.pcReadFrom, pvItemToQueue, ( size_t ) pxQueue->uxItemSize ); /*lint !e961 MISRA exception as the casts are only redundant for some ports. */
 800133e:	4631      	mov	r1, r6
 8001340:	68e0      	ldr	r0, [r4, #12]
 8001342:	f001 fc57 	bl	8002bf4 <memcpy>
		pxQueue->u.pcReadFrom -= pxQueue->uxItemSize;
 8001346:	6c23      	ldr	r3, [r4, #64]	; 0x40
 8001348:	68e2      	ldr	r2, [r4, #12]
 800134a:	425b      	negs	r3, r3
		if( pxQueue->u.pcReadFrom < pxQueue->pcHead ) /*lint !e946 MISRA exception justified as comparison of pointers is the cleanest solution. */
 800134c:	6821      	ldr	r1, [r4, #0]
		pxQueue->u.pcReadFrom -= pxQueue->uxItemSize;
 800134e:	441a      	add	r2, r3
		if( pxQueue->u.pcReadFrom < pxQueue->pcHead ) /*lint !e946 MISRA exception justified as comparison of pointers is the cleanest solution. */
 8001350:	428a      	cmp	r2, r1
		pxQueue->u.pcReadFrom -= pxQueue->uxItemSize;
 8001352:	60e2      	str	r2, [r4, #12]
		if( pxQueue->u.pcReadFrom < pxQueue->pcHead ) /*lint !e946 MISRA exception justified as comparison of pointers is the cleanest solution. */
 8001354:	d216      	bcs.n	8001384 <xQueueGenericSend+0x2f8>
			pxQueue->u.pcReadFrom = ( pxQueue->pcTail - pxQueue->uxItemSize );
 8001356:	6862      	ldr	r2, [r4, #4]
 8001358:	4413      	add	r3, r2
 800135a:	60e3      	str	r3, [r4, #12]
		if( xPosition == queueOVERWRITE )
 800135c:	2f02      	cmp	r7, #2
 800135e:	d011      	beq.n	8001384 <xQueueGenericSend+0x2f8>
	pxQueue->uxMessagesWaiting = uxMessagesWaiting + ( UBaseType_t ) 1;
 8001360:	3501      	adds	r5, #1
 8001362:	63a5      	str	r5, [r4, #56]	; 0x38
					if( listLIST_IS_EMPTY( &( pxQueue->xTasksWaitingToReceive ) ) == pdFALSE )
 8001364:	6a63      	ldr	r3, [r4, #36]	; 0x24
 8001366:	2b00      	cmp	r3, #0
 8001368:	d0cf      	beq.n	800130a <xQueueGenericSend+0x27e>
 800136a:	e756      	b.n	800121a <xQueueGenericSend+0x18e>
		( void ) memcpy( ( void * ) pxQueue->u.pcReadFrom, pvItemToQueue, ( size_t ) pxQueue->uxItemSize ); /*lint !e961 MISRA exception as the casts are only redundant for some ports. */
 800136c:	68e0      	ldr	r0, [r4, #12]
 800136e:	f001 fc41 	bl	8002bf4 <memcpy>
		pxQueue->u.pcReadFrom -= pxQueue->uxItemSize;
 8001372:	6c23      	ldr	r3, [r4, #64]	; 0x40
 8001374:	68e2      	ldr	r2, [r4, #12]
 8001376:	425b      	negs	r3, r3
		if( pxQueue->u.pcReadFrom < pxQueue->pcHead ) /*lint !e946 MISRA exception justified as comparison of pointers is the cleanest solution. */
 8001378:	6821      	ldr	r1, [r4, #0]
		pxQueue->u.pcReadFrom -= pxQueue->uxItemSize;
 800137a:	441a      	add	r2, r3
		if( pxQueue->u.pcReadFrom < pxQueue->pcHead ) /*lint !e946 MISRA exception justified as comparison of pointers is the cleanest solution. */
 800137c:	428a      	cmp	r2, r1
		pxQueue->u.pcReadFrom -= pxQueue->uxItemSize;
 800137e:	60e2      	str	r2, [r4, #12]
		if( pxQueue->u.pcReadFrom < pxQueue->pcHead ) /*lint !e946 MISRA exception justified as comparison of pointers is the cleanest solution. */
 8001380:	d2ec      	bcs.n	800135c <xQueueGenericSend+0x2d0>
 8001382:	e7e8      	b.n	8001356 <xQueueGenericSend+0x2ca>
			if( uxMessagesWaiting > ( UBaseType_t ) 0 )
 8001384:	2d00      	cmp	r5, #0
 8001386:	d1bc      	bne.n	8001302 <xQueueGenericSend+0x276>
	pxQueue->uxMessagesWaiting = uxMessagesWaiting + ( UBaseType_t ) 1;
 8001388:	2301      	movs	r3, #1
 800138a:	63a3      	str	r3, [r4, #56]	; 0x38
					if( listLIST_IS_EMPTY( &( pxQueue->xTasksWaitingToReceive ) ) == pdFALSE )
 800138c:	6a63      	ldr	r3, [r4, #36]	; 0x24
 800138e:	2b00      	cmp	r3, #0
 8001390:	d0bb      	beq.n	800130a <xQueueGenericSend+0x27e>
 8001392:	e742      	b.n	800121a <xQueueGenericSend+0x18e>
	taskENTER_CRITICAL();
 8001394:	f001 fa2e 	bl	80027f4 <vPortEnterCritical>
		int8_t cTxLock = pxQueue->cTxLock;
 8001398:	f894 5045 	ldrb.w	r5, [r4, #69]	; 0x45
 800139c:	b26d      	sxtb	r5, r5
		while( cTxLock > queueLOCKED_UNMODIFIED )
 800139e:	2d00      	cmp	r5, #0
 80013a0:	dd16      	ble.n	80013d0 <xQueueGenericSend+0x344>
				if( listLIST_IS_EMPTY( &( pxQueue->xTasksWaitingToReceive ) ) == pdFALSE )
 80013a2:	6a63      	ldr	r3, [r4, #36]	; 0x24
 80013a4:	b1a3      	cbz	r3, 80013d0 <xQueueGenericSend+0x344>
 80013a6:	f104 0624 	add.w	r6, r4, #36	; 0x24
 80013aa:	e005      	b.n	80013b8 <xQueueGenericSend+0x32c>
 80013ac:	3d01      	subs	r5, #1
 80013ae:	b2eb      	uxtb	r3, r5
 80013b0:	b25d      	sxtb	r5, r3
		while( cTxLock > queueLOCKED_UNMODIFIED )
 80013b2:	b16b      	cbz	r3, 80013d0 <xQueueGenericSend+0x344>
				if( listLIST_IS_EMPTY( &( pxQueue->xTasksWaitingToReceive ) ) == pdFALSE )
 80013b4:	6a63      	ldr	r3, [r4, #36]	; 0x24
 80013b6:	b15b      	cbz	r3, 80013d0 <xQueueGenericSend+0x344>
					if( xTaskRemoveFromEventList( &( pxQueue->xTasksWaitingToReceive ) ) != pdFALSE )
 80013b8:	4630      	mov	r0, r6
 80013ba:	f000 ff01 	bl	80021c0 <xTaskRemoveFromEventList>
 80013be:	2800      	cmp	r0, #0
 80013c0:	d0f4      	beq.n	80013ac <xQueueGenericSend+0x320>
						vTaskMissedYield();
 80013c2:	f000 ff95 	bl	80022f0 <vTaskMissedYield>
 80013c6:	e7f1      	b.n	80013ac <xQueueGenericSend+0x320>
					taskEXIT_CRITICAL();
 80013c8:	f001 fa36 	bl	8002838 <vPortExitCritical>
					return errQUEUE_FULL;
 80013cc:	4628      	mov	r0, r5
 80013ce:	e79f      	b.n	8001310 <xQueueGenericSend+0x284>
		pxQueue->cTxLock = queueUNLOCKED;
 80013d0:	23ff      	movs	r3, #255	; 0xff
 80013d2:	f884 3045 	strb.w	r3, [r4, #69]	; 0x45
	taskEXIT_CRITICAL();
 80013d6:	f001 fa2f 	bl	8002838 <vPortExitCritical>
	taskENTER_CRITICAL();
 80013da:	f001 fa0b 	bl	80027f4 <vPortEnterCritical>
		int8_t cRxLock = pxQueue->cRxLock;
 80013de:	f894 5044 	ldrb.w	r5, [r4, #68]	; 0x44
 80013e2:	b26d      	sxtb	r5, r5
		while( cRxLock > queueLOCKED_UNMODIFIED )
 80013e4:	2d00      	cmp	r5, #0
 80013e6:	dd12      	ble.n	800140e <xQueueGenericSend+0x382>
			if( listLIST_IS_EMPTY( &( pxQueue->xTasksWaitingToSend ) ) == pdFALSE )
 80013e8:	6923      	ldr	r3, [r4, #16]
 80013ea:	b183      	cbz	r3, 800140e <xQueueGenericSend+0x382>
 80013ec:	f104 0610 	add.w	r6, r4, #16
 80013f0:	e005      	b.n	80013fe <xQueueGenericSend+0x372>
 80013f2:	3d01      	subs	r5, #1
 80013f4:	b2eb      	uxtb	r3, r5
 80013f6:	b25d      	sxtb	r5, r3
		while( cRxLock > queueLOCKED_UNMODIFIED )
 80013f8:	b14b      	cbz	r3, 800140e <xQueueGenericSend+0x382>
			if( listLIST_IS_EMPTY( &( pxQueue->xTasksWaitingToSend ) ) == pdFALSE )
 80013fa:	6923      	ldr	r3, [r4, #16]
 80013fc:	b13b      	cbz	r3, 800140e <xQueueGenericSend+0x382>
				if( xTaskRemoveFromEventList( &( pxQueue->xTasksWaitingToSend ) ) != pdFALSE )
 80013fe:	4630      	mov	r0, r6
 8001400:	f000 fede 	bl	80021c0 <xTaskRemoveFromEventList>
 8001404:	2800      	cmp	r0, #0
 8001406:	d0f4      	beq.n	80013f2 <xQueueGenericSend+0x366>
					vTaskMissedYield();
 8001408:	f000 ff72 	bl	80022f0 <vTaskMissedYield>
 800140c:	e7f1      	b.n	80013f2 <xQueueGenericSend+0x366>
		pxQueue->cRxLock = queueUNLOCKED;
 800140e:	23ff      	movs	r3, #255	; 0xff
 8001410:	f884 3044 	strb.w	r3, [r4, #68]	; 0x44
	taskEXIT_CRITICAL();
 8001414:	f001 fa10 	bl	8002838 <vPortExitCritical>
			( void ) xTaskResumeAll();
 8001418:	f000 fd56 	bl	8001ec8 <xTaskResumeAll>
			return errQUEUE_FULL;
 800141c:	2000      	movs	r0, #0
 800141e:	e777      	b.n	8001310 <xQueueGenericSend+0x284>
 8001420:	e000ed04 	.word	0xe000ed04

08001424 <xQueueReceive>:
{
 8001424:	e92d 47f0 	stmdb	sp!, {r4, r5, r6, r7, r8, r9, sl, lr}
 8001428:	b084      	sub	sp, #16
 800142a:	9201      	str	r2, [sp, #4]
	configASSERT( ( pxQueue ) );
 800142c:	2800      	cmp	r0, #0
 800142e:	f000 8143 	beq.w	80016b8 <xQueueReceive+0x294>
	configASSERT( !( ( ( pvBuffer ) == NULL ) && ( ( pxQueue )->uxItemSize != ( UBaseType_t ) 0U ) ) );
 8001432:	2900      	cmp	r1, #0
 8001434:	f000 8133 	beq.w	800169e <xQueueReceive+0x27a>
 8001438:	4604      	mov	r4, r0
 800143a:	460f      	mov	r7, r1
		configASSERT( !( ( xTaskGetSchedulerState() == taskSCHEDULER_SUSPENDED ) && ( xTicksToWait != 0 ) ) );
 800143c:	f000 ff5e 	bl	80022fc <xTaskGetSchedulerState>
 8001440:	b950      	cbnz	r0, 8001458 <xQueueReceive+0x34>
 8001442:	9b01      	ldr	r3, [sp, #4]
 8001444:	b143      	cbz	r3, 8001458 <xQueueReceive+0x34>
 8001446:	f04f 0350 	mov.w	r3, #80	; 0x50
 800144a:	f383 8811 	msr	BASEPRI, r3
 800144e:	f3bf 8f6f 	isb	sy
 8001452:	f3bf 8f4f 	dsb	sy
 8001456:	e7fe      	b.n	8001456 <xQueueReceive+0x32>
		taskENTER_CRITICAL();
 8001458:	f001 f9cc 	bl	80027f4 <vPortEnterCritical>
			const UBaseType_t uxMessagesWaiting = pxQueue->uxMessagesWaiting;
 800145c:	6ba5      	ldr	r5, [r4, #56]	; 0x38
			if( uxMessagesWaiting > ( UBaseType_t ) 0 )
 800145e:	2d00      	cmp	r5, #0
 8001460:	f040 80ba 	bne.w	80015d8 <xQueueReceive+0x1b4>
				if( xTicksToWait == ( TickType_t ) 0 )
 8001464:	9b01      	ldr	r3, [sp, #4]
 8001466:	2b00      	cmp	r3, #0
 8001468:	d06a      	beq.n	8001540 <xQueueReceive+0x11c>
					vTaskInternalSetTimeOutState( &xTimeOut );
 800146a:	a802      	add	r0, sp, #8
		prvLockQueue( pxQueue );
 800146c:	46a8      	mov	r8, r5
					vTaskInternalSetTimeOutState( &xTimeOut );
 800146e:	f000 feed 	bl	800224c <vTaskInternalSetTimeOutState>
					portYIELD_WITHIN_API();
 8001472:	f8df 9274 	ldr.w	r9, [pc, #628]	; 80016e8 <xQueueReceive+0x2c4>
 8001476:	f104 0624 	add.w	r6, r4, #36	; 0x24
		taskEXIT_CRITICAL();
 800147a:	f001 f9dd 	bl	8002838 <vPortExitCritical>
		vTaskSuspendAll();
 800147e:	f000 fc71 	bl	8001d64 <vTaskSuspendAll>
		prvLockQueue( pxQueue );
 8001482:	f001 f9b7 	bl	80027f4 <vPortEnterCritical>
 8001486:	f894 3044 	ldrb.w	r3, [r4, #68]	; 0x44
 800148a:	2bff      	cmp	r3, #255	; 0xff
 800148c:	bf08      	it	eq
 800148e:	f884 8044 	strbeq.w	r8, [r4, #68]	; 0x44
 8001492:	f894 3045 	ldrb.w	r3, [r4, #69]	; 0x45
 8001496:	2bff      	cmp	r3, #255	; 0xff
 8001498:	bf08      	it	eq
 800149a:	f884 8045 	strbeq.w	r8, [r4, #69]	; 0x45
 800149e:	f001 f9cb 	bl	8002838 <vPortExitCritical>
		if( xTaskCheckForTimeOut( &xTimeOut, &xTicksToWait ) == pdFALSE )
 80014a2:	a901      	add	r1, sp, #4
 80014a4:	a802      	add	r0, sp, #8
 80014a6:	f000 fedd 	bl	8002264 <xTaskCheckForTimeOut>
 80014aa:	2800      	cmp	r0, #0
 80014ac:	d14e      	bne.n	800154c <xQueueReceive+0x128>
	taskENTER_CRITICAL();
 80014ae:	f001 f9a1 	bl	80027f4 <vPortEnterCritical>
		if( pxQueue->uxMessagesWaiting == ( UBaseType_t )  0 )
 80014b2:	6ba3      	ldr	r3, [r4, #56]	; 0x38
 80014b4:	2b00      	cmp	r3, #0
 80014b6:	f000 80a8 	beq.w	800160a <xQueueReceive+0x1e6>
	taskEXIT_CRITICAL();
 80014ba:	f001 f9bd 	bl	8002838 <vPortExitCritical>
	taskENTER_CRITICAL();
 80014be:	f001 f999 	bl	80027f4 <vPortEnterCritical>
		int8_t cTxLock = pxQueue->cTxLock;
 80014c2:	f894 5045 	ldrb.w	r5, [r4, #69]	; 0x45
 80014c6:	b26d      	sxtb	r5, r5
		while( cTxLock > queueLOCKED_UNMODIFIED )
 80014c8:	2d00      	cmp	r5, #0
 80014ca:	dc0a      	bgt.n	80014e2 <xQueueReceive+0xbe>
 80014cc:	e00c      	b.n	80014e8 <xQueueReceive+0xc4>
					if( xTaskRemoveFromEventList( &( pxQueue->xTasksWaitingToReceive ) ) != pdFALSE )
 80014ce:	4630      	mov	r0, r6
 80014d0:	f000 fe76 	bl	80021c0 <xTaskRemoveFromEventList>
 80014d4:	b108      	cbz	r0, 80014da <xQueueReceive+0xb6>
						vTaskMissedYield();
 80014d6:	f000 ff0b 	bl	80022f0 <vTaskMissedYield>
 80014da:	3d01      	subs	r5, #1
 80014dc:	b2eb      	uxtb	r3, r5
 80014de:	b25d      	sxtb	r5, r3
		while( cTxLock > queueLOCKED_UNMODIFIED )
 80014e0:	b113      	cbz	r3, 80014e8 <xQueueReceive+0xc4>
				if( listLIST_IS_EMPTY( &( pxQueue->xTasksWaitingToReceive ) ) == pdFALSE )
 80014e2:	6a63      	ldr	r3, [r4, #36]	; 0x24
 80014e4:	2b00      	cmp	r3, #0
 80014e6:	d1f2      	bne.n	80014ce <xQueueReceive+0xaa>
		pxQueue->cTxLock = queueUNLOCKED;
 80014e8:	23ff      	movs	r3, #255	; 0xff
 80014ea:	f884 3045 	strb.w	r3, [r4, #69]	; 0x45
	taskEXIT_CRITICAL();
 80014ee:	f001 f9a3 	bl	8002838 <vPortExitCritical>
	taskENTER_CRITICAL();
 80014f2:	f001 f97f 	bl	80027f4 <vPortEnterCritical>
		int8_t cRxLock = pxQueue->cRxLock;
 80014f6:	f894 5044 	ldrb.w	r5, [r4, #68]	; 0x44
 80014fa:	b26d      	sxtb	r5, r5
		while( cRxLock > queueLOCKED_UNMODIFIED )
 80014fc:	2d00      	cmp	r5, #0
 80014fe:	dd10      	ble.n	8001522 <xQueueReceive+0xfe>
			if( listLIST_IS_EMPTY( &( pxQueue->xTasksWaitingToSend ) ) == pdFALSE )
 8001500:	6923      	ldr	r3, [r4, #16]
 8001502:	b173      	cbz	r3, 8001522 <xQueueReceive+0xfe>
 8001504:	f104 0a10 	add.w	sl, r4, #16
				if( xTaskRemoveFromEventList( &( pxQueue->xTasksWaitingToSend ) ) != pdFALSE )
 8001508:	4650      	mov	r0, sl
 800150a:	f000 fe59 	bl	80021c0 <xTaskRemoveFromEventList>
 800150e:	b108      	cbz	r0, 8001514 <xQueueReceive+0xf0>
					vTaskMissedYield();
 8001510:	f000 feee 	bl	80022f0 <vTaskMissedYield>
 8001514:	3d01      	subs	r5, #1
 8001516:	b2eb      	uxtb	r3, r5
 8001518:	b25d      	sxtb	r5, r3
		while( cRxLock > queueLOCKED_UNMODIFIED )
 800151a:	b113      	cbz	r3, 8001522 <xQueueReceive+0xfe>
			if( listLIST_IS_EMPTY( &( pxQueue->xTasksWaitingToSend ) ) == pdFALSE )
 800151c:	6923      	ldr	r3, [r4, #16]
 800151e:	2b00      	cmp	r3, #0
 8001520:	d1f2      	bne.n	8001508 <xQueueReceive+0xe4>
		pxQueue->cRxLock = queueUNLOCKED;
 8001522:	23ff      	movs	r3, #255	; 0xff
 8001524:	f884 3044 	strb.w	r3, [r4, #68]	; 0x44
	taskEXIT_CRITICAL();
 8001528:	f001 f986 	bl	8002838 <vPortExitCritical>
				( void ) xTaskResumeAll();
 800152c:	f000 fccc 	bl	8001ec8 <xTaskResumeAll>
		taskENTER_CRITICAL();
 8001530:	f001 f960 	bl	80027f4 <vPortEnterCritical>
			const UBaseType_t uxMessagesWaiting = pxQueue->uxMessagesWaiting;
 8001534:	6ba5      	ldr	r5, [r4, #56]	; 0x38
			if( uxMessagesWaiting > ( UBaseType_t ) 0 )
 8001536:	2d00      	cmp	r5, #0
 8001538:	d14e      	bne.n	80015d8 <xQueueReceive+0x1b4>
				if( xTicksToWait == ( TickType_t ) 0 )
 800153a:	9b01      	ldr	r3, [sp, #4]
 800153c:	2b00      	cmp	r3, #0
 800153e:	d19c      	bne.n	800147a <xQueueReceive+0x56>
					taskEXIT_CRITICAL();
 8001540:	f001 f97a 	bl	8002838 <vPortExitCritical>
					return errQUEUE_EMPTY;
 8001544:	2000      	movs	r0, #0
}
 8001546:	b004      	add	sp, #16
 8001548:	e8bd 87f0 	ldmia.w	sp!, {r4, r5, r6, r7, r8, r9, sl, pc}
	taskENTER_CRITICAL();
 800154c:	f001 f952 	bl	80027f4 <vPortEnterCritical>
		int8_t cTxLock = pxQueue->cTxLock;
 8001550:	f894 5045 	ldrb.w	r5, [r4, #69]	; 0x45
 8001554:	b26d      	sxtb	r5, r5
		while( cTxLock > queueLOCKED_UNMODIFIED )
 8001556:	2d00      	cmp	r5, #0
 8001558:	dc0a      	bgt.n	8001570 <xQueueReceive+0x14c>
 800155a:	e00c      	b.n	8001576 <xQueueReceive+0x152>
					if( xTaskRemoveFromEventList( &( pxQueue->xTasksWaitingToReceive ) ) != pdFALSE )
 800155c:	4630      	mov	r0, r6
 800155e:	f000 fe2f 	bl	80021c0 <xTaskRemoveFromEventList>
 8001562:	b108      	cbz	r0, 8001568 <xQueueReceive+0x144>
						vTaskMissedYield();
 8001564:	f000 fec4 	bl	80022f0 <vTaskMissedYield>
 8001568:	3d01      	subs	r5, #1
 800156a:	b2eb      	uxtb	r3, r5
 800156c:	b25d      	sxtb	r5, r3
		while( cTxLock > queueLOCKED_UNMODIFIED )
 800156e:	b113      	cbz	r3, 8001576 <xQueueReceive+0x152>
				if( listLIST_IS_EMPTY( &( pxQueue->xTasksWaitingToReceive ) ) == pdFALSE )
 8001570:	6a63      	ldr	r3, [r4, #36]	; 0x24
 8001572:	2b00      	cmp	r3, #0
 8001574:	d1f2      	bne.n	800155c <xQueueReceive+0x138>
		pxQueue->cTxLock = queueUNLOCKED;
 8001576:	23ff      	movs	r3, #255	; 0xff
 8001578:	f884 3045 	strb.w	r3, [r4, #69]	; 0x45
	taskEXIT_CRITICAL();
 800157c:	f001 f95c 	bl	8002838 <vPortExitCritical>
	taskENTER_CRITICAL();
 8001580:	f001 f938 	bl	80027f4 <vPortEnterCritical>
		int8_t cRxLock = pxQueue->cRxLock;
 8001584:	f894 5044 	ldrb.w	r5, [r4, #68]	; 0x44
 8001588:	b26d      	sxtb	r5, r5
		while( cRxLock > queueLOCKED_UNMODIFIED )
 800158a:	2d00      	cmp	r5, #0
 800158c:	dd11      	ble.n	80015b2 <xQueueReceive+0x18e>
			if( listLIST_IS_EMPTY( &( pxQueue->xTasksWaitingToSend ) ) == pdFALSE )
 800158e:	6923      	ldr	r3, [r4, #16]
 8001590:	b17b      	cbz	r3, 80015b2 <xQueueReceive+0x18e>
 8001592:	f104 0a10 	add.w	sl, r4, #16
 8001596:	e001      	b.n	800159c <xQueueReceive+0x178>
 8001598:	6923      	ldr	r3, [r4, #16]
 800159a:	b153      	cbz	r3, 80015b2 <xQueueReceive+0x18e>
				if( xTaskRemoveFromEventList( &( pxQueue->xTasksWaitingToSend ) ) != pdFALSE )
 800159c:	4650      	mov	r0, sl
 800159e:	f000 fe0f 	bl	80021c0 <xTaskRemoveFromEventList>
 80015a2:	b108      	cbz	r0, 80015a8 <xQueueReceive+0x184>
					vTaskMissedYield();
 80015a4:	f000 fea4 	bl	80022f0 <vTaskMissedYield>
 80015a8:	3d01      	subs	r5, #1
 80015aa:	b2eb      	uxtb	r3, r5
 80015ac:	b25d      	sxtb	r5, r3
		while( cRxLock > queueLOCKED_UNMODIFIED )
 80015ae:	2b00      	cmp	r3, #0
 80015b0:	d1f2      	bne.n	8001598 <xQueueReceive+0x174>
		pxQueue->cRxLock = queueUNLOCKED;
 80015b2:	23ff      	movs	r3, #255	; 0xff
 80015b4:	f884 3044 	strb.w	r3, [r4, #68]	; 0x44
	taskEXIT_CRITICAL();
 80015b8:	f001 f93e 	bl	8002838 <vPortExitCritical>
			( void ) xTaskResumeAll();
 80015bc:	f000 fc84 	bl	8001ec8 <xTaskResumeAll>
	taskENTER_CRITICAL();
 80015c0:	f001 f918 	bl	80027f4 <vPortEnterCritical>
		if( pxQueue->uxMessagesWaiting == ( UBaseType_t )  0 )
 80015c4:	6ba3      	ldr	r3, [r4, #56]	; 0x38
 80015c6:	2b00      	cmp	r3, #0
 80015c8:	d0ba      	beq.n	8001540 <xQueueReceive+0x11c>
	taskEXIT_CRITICAL();
 80015ca:	f001 f935 	bl	8002838 <vPortExitCritical>
		taskENTER_CRITICAL();
 80015ce:	f001 f911 	bl	80027f4 <vPortEnterCritical>
			const UBaseType_t uxMessagesWaiting = pxQueue->uxMessagesWaiting;
 80015d2:	6ba5      	ldr	r5, [r4, #56]	; 0x38
			if( uxMessagesWaiting > ( UBaseType_t ) 0 )
 80015d4:	2d00      	cmp	r5, #0
 80015d6:	d0b0      	beq.n	800153a <xQueueReceive+0x116>
	if( pxQueue->uxItemSize != ( UBaseType_t ) 0 )
 80015d8:	6c22      	ldr	r2, [r4, #64]	; 0x40
 80015da:	b15a      	cbz	r2, 80015f4 <xQueueReceive+0x1d0>
		pxQueue->u.pcReadFrom += pxQueue->uxItemSize;
 80015dc:	68e1      	ldr	r1, [r4, #12]
		if( pxQueue->u.pcReadFrom >= pxQueue->pcTail ) /*lint !e946 MISRA exception justified as use of the relational operator is the cleanest solutions. */
 80015de:	6863      	ldr	r3, [r4, #4]
		pxQueue->u.pcReadFrom += pxQueue->uxItemSize;
 80015e0:	4411      	add	r1, r2
		if( pxQueue->u.pcReadFrom >= pxQueue->pcTail ) /*lint !e946 MISRA exception justified as use of the relational operator is the cleanest solutions. */
 80015e2:	4299      	cmp	r1, r3
		pxQueue->u.pcReadFrom += pxQueue->uxItemSize;
 80015e4:	60e1      	str	r1, [r4, #12]
		if( pxQueue->u.pcReadFrom >= pxQueue->pcTail ) /*lint !e946 MISRA exception justified as use of the relational operator is the cleanest solutions. */
 80015e6:	d302      	bcc.n	80015ee <xQueueReceive+0x1ca>
			pxQueue->u.pcReadFrom = pxQueue->pcHead;
 80015e8:	6823      	ldr	r3, [r4, #0]
 80015ea:	4619      	mov	r1, r3
 80015ec:	60e3      	str	r3, [r4, #12]
		( void ) memcpy( ( void * ) pvBuffer, ( void * ) pxQueue->u.pcReadFrom, ( size_t ) pxQueue->uxItemSize ); /*lint !e961 !e418 MISRA exception as the casts are only redundant for some ports.  Also previous logic ensures a null pointer can only be passed to memcpy() when the count is 0. */
 80015ee:	4638      	mov	r0, r7
 80015f0:	f001 fb00 	bl	8002bf4 <memcpy>
				pxQueue->uxMessagesWaiting = uxMessagesWaiting - ( UBaseType_t ) 1;
 80015f4:	3d01      	subs	r5, #1
 80015f6:	63a5      	str	r5, [r4, #56]	; 0x38
				if( listLIST_IS_EMPTY( &( pxQueue->xTasksWaitingToSend ) ) == pdFALSE )
 80015f8:	6923      	ldr	r3, [r4, #16]
 80015fa:	2b00      	cmp	r3, #0
 80015fc:	d165      	bne.n	80016ca <xQueueReceive+0x2a6>
				taskEXIT_CRITICAL();
 80015fe:	f001 f91b 	bl	8002838 <vPortExitCritical>
				return pdPASS;
 8001602:	2001      	movs	r0, #1
}
 8001604:	b004      	add	sp, #16
 8001606:	e8bd 87f0 	ldmia.w	sp!, {r4, r5, r6, r7, r8, r9, sl, pc}
	taskEXIT_CRITICAL();
 800160a:	f001 f915 	bl	8002838 <vPortExitCritical>
				vTaskPlaceOnEventList( &( pxQueue->xTasksWaitingToReceive ), xTicksToWait );
 800160e:	9901      	ldr	r1, [sp, #4]
 8001610:	4630      	mov	r0, r6
 8001612:	f000 fd47 	bl	80020a4 <vTaskPlaceOnEventList>
	taskENTER_CRITICAL();
 8001616:	f001 f8ed 	bl	80027f4 <vPortEnterCritical>
		int8_t cTxLock = pxQueue->cTxLock;
 800161a:	f894 5045 	ldrb.w	r5, [r4, #69]	; 0x45
 800161e:	b26d      	sxtb	r5, r5
		while( cTxLock > queueLOCKED_UNMODIFIED )
 8001620:	2d00      	cmp	r5, #0
 8001622:	dc0a      	bgt.n	800163a <xQueueReceive+0x216>
 8001624:	e00c      	b.n	8001640 <xQueueReceive+0x21c>
					if( xTaskRemoveFromEventList( &( pxQueue->xTasksWaitingToReceive ) ) != pdFALSE )
 8001626:	4630      	mov	r0, r6
 8001628:	f000 fdca 	bl	80021c0 <xTaskRemoveFromEventList>
 800162c:	b108      	cbz	r0, 8001632 <xQueueReceive+0x20e>
						vTaskMissedYield();
 800162e:	f000 fe5f 	bl	80022f0 <vTaskMissedYield>
 8001632:	3d01      	subs	r5, #1
 8001634:	b2eb      	uxtb	r3, r5
 8001636:	b25d      	sxtb	r5, r3
		while( cTxLock > queueLOCKED_UNMODIFIED )
 8001638:	b113      	cbz	r3, 8001640 <xQueueReceive+0x21c>
				if( listLIST_IS_EMPTY( &( pxQueue->xTasksWaitingToReceive ) ) == pdFALSE )
 800163a:	6a63      	ldr	r3, [r4, #36]	; 0x24
 800163c:	2b00      	cmp	r3, #0
 800163e:	d1f2      	bne.n	8001626 <xQueueReceive+0x202>
		pxQueue->cTxLock = queueUNLOCKED;
 8001640:	23ff      	movs	r3, #255	; 0xff
 8001642:	f884 3045 	strb.w	r3, [r4, #69]	; 0x45
	taskEXIT_CRITICAL();
 8001646:	f001 f8f7 	bl	8002838 <vPortExitCritical>
	taskENTER_CRITICAL();
 800164a:	f001 f8d3 	bl	80027f4 <vPortEnterCritical>
		int8_t cRxLock = pxQueue->cRxLock;
 800164e:	f894 5044 	ldrb.w	r5, [r4, #68]	; 0x44
 8001652:	b26d      	sxtb	r5, r5
		while( cRxLock > queueLOCKED_UNMODIFIED )
 8001654:	2d00      	cmp	r5, #0
 8001656:	dd10      	ble.n	800167a <xQueueReceive+0x256>
			if( listLIST_IS_EMPTY( &( pxQueue->xTasksWaitingToSend ) ) == pdFALSE )
 8001658:	6923      	ldr	r3, [r4, #16]
 800165a:	b173      	cbz	r3, 800167a <xQueueReceive+0x256>
 800165c:	f104 0a10 	add.w	sl, r4, #16
				if( xTaskRemoveFromEventList( &( pxQueue->xTasksWaitingToSend ) ) != pdFALSE )
 8001660:	4650      	mov	r0, sl
 8001662:	f000 fdad 	bl	80021c0 <xTaskRemoveFromEventList>
 8001666:	b108      	cbz	r0, 800166c <xQueueReceive+0x248>
					vTaskMissedYield();
 8001668:	f000 fe42 	bl	80022f0 <vTaskMissedYield>
 800166c:	3d01      	subs	r5, #1
 800166e:	b2eb      	uxtb	r3, r5
 8001670:	b25d      	sxtb	r5, r3
		while( cRxLock > queueLOCKED_UNMODIFIED )
 8001672:	b113      	cbz	r3, 800167a <xQueueReceive+0x256>
			if( listLIST_IS_EMPTY( &( pxQueue->xTasksWaitingToSend ) ) == pdFALSE )
 8001674:	6923      	ldr	r3, [r4, #16]
 8001676:	2b00      	cmp	r3, #0
 8001678:	d1f2      	bne.n	8001660 <xQueueReceive+0x23c>
		pxQueue->cRxLock = queueUNLOCKED;
 800167a:	23ff      	movs	r3, #255	; 0xff
 800167c:	f884 3044 	strb.w	r3, [r4, #68]	; 0x44
	taskEXIT_CRITICAL();
 8001680:	f001 f8da 	bl	8002838 <vPortExitCritical>
				if( xTaskResumeAll() == pdFALSE )
 8001684:	f000 fc20 	bl	8001ec8 <xTaskResumeAll>
 8001688:	2800      	cmp	r0, #0
 800168a:	d1a0      	bne.n	80015ce <xQueueReceive+0x1aa>
					portYIELD_WITHIN_API();
 800168c:	f04f 5380 	mov.w	r3, #268435456	; 0x10000000
 8001690:	f8c9 3000 	str.w	r3, [r9]
 8001694:	f3bf 8f4f 	dsb	sy
 8001698:	f3bf 8f6f 	isb	sy
 800169c:	e797      	b.n	80015ce <xQueueReceive+0x1aa>
	configASSERT( !( ( ( pvBuffer ) == NULL ) && ( ( pxQueue )->uxItemSize != ( UBaseType_t ) 0U ) ) );
 800169e:	6c03      	ldr	r3, [r0, #64]	; 0x40
 80016a0:	2b00      	cmp	r3, #0
 80016a2:	f43f aec9 	beq.w	8001438 <xQueueReceive+0x14>
 80016a6:	f04f 0350 	mov.w	r3, #80	; 0x50
 80016aa:	f383 8811 	msr	BASEPRI, r3
 80016ae:	f3bf 8f6f 	isb	sy
 80016b2:	f3bf 8f4f 	dsb	sy
 80016b6:	e7fe      	b.n	80016b6 <xQueueReceive+0x292>
 80016b8:	f04f 0350 	mov.w	r3, #80	; 0x50
 80016bc:	f383 8811 	msr	BASEPRI, r3
 80016c0:	f3bf 8f6f 	isb	sy
 80016c4:	f3bf 8f4f 	dsb	sy
 80016c8:	e7fe      	b.n	80016c8 <xQueueReceive+0x2a4>
					if( xTaskRemoveFromEventList( &( pxQueue->xTasksWaitingToSend ) ) != pdFALSE )
 80016ca:	f104 0010 	add.w	r0, r4, #16
 80016ce:	f000 fd77 	bl	80021c0 <xTaskRemoveFromEventList>
 80016d2:	2800      	cmp	r0, #0
 80016d4:	d093      	beq.n	80015fe <xQueueReceive+0x1da>
						queueYIELD_IF_USING_PREEMPTION();
 80016d6:	f04f 5280 	mov.w	r2, #268435456	; 0x10000000
 80016da:	4b03      	ldr	r3, [pc, #12]	; (80016e8 <xQueueReceive+0x2c4>)
 80016dc:	601a      	str	r2, [r3, #0]
 80016de:	f3bf 8f4f 	dsb	sy
 80016e2:	f3bf 8f6f 	isb	sy
 80016e6:	e78a      	b.n	80015fe <xQueueReceive+0x1da>
 80016e8:	e000ed04 	.word	0xe000ed04

080016ec <vQueueAddToRegistry>:

		/* See if there is an empty space in the registry.  A NULL name denotes
		a free slot. */
		for( ux = ( UBaseType_t ) 0U; ux < ( UBaseType_t ) configQUEUE_REGISTRY_SIZE; ux++ )
		{
			if( xQueueRegistry[ ux ].pcQueueName == NULL )
 80016ec:	4b13      	ldr	r3, [pc, #76]	; (800173c <vQueueAddToRegistry+0x50>)
 80016ee:	681a      	ldr	r2, [r3, #0]
 80016f0:	b17a      	cbz	r2, 8001712 <vQueueAddToRegistry+0x26>
 80016f2:	689a      	ldr	r2, [r3, #8]
 80016f4:	b1aa      	cbz	r2, 8001722 <vQueueAddToRegistry+0x36>
 80016f6:	691a      	ldr	r2, [r3, #16]
 80016f8:	b1aa      	cbz	r2, 8001726 <vQueueAddToRegistry+0x3a>
 80016fa:	699a      	ldr	r2, [r3, #24]
 80016fc:	b1aa      	cbz	r2, 800172a <vQueueAddToRegistry+0x3e>
 80016fe:	6a1a      	ldr	r2, [r3, #32]
 8001700:	b1aa      	cbz	r2, 800172e <vQueueAddToRegistry+0x42>
 8001702:	6a9a      	ldr	r2, [r3, #40]	; 0x28
 8001704:	b1aa      	cbz	r2, 8001732 <vQueueAddToRegistry+0x46>
 8001706:	6b1a      	ldr	r2, [r3, #48]	; 0x30
 8001708:	b112      	cbz	r2, 8001710 <vQueueAddToRegistry+0x24>
 800170a:	6b9a      	ldr	r2, [r3, #56]	; 0x38
 800170c:	b19a      	cbz	r2, 8001736 <vQueueAddToRegistry+0x4a>
 800170e:	4770      	bx	lr
		for( ux = ( UBaseType_t ) 0U; ux < ( UBaseType_t ) configQUEUE_REGISTRY_SIZE; ux++ )
 8001710:	2206      	movs	r2, #6
	{
 8001712:	b410      	push	{r4}
			{
				/* Store the information on this queue. */
				xQueueRegistry[ ux ].pcQueueName = pcQueueName;
				xQueueRegistry[ ux ].xHandle = xQueue;
 8001714:	eb03 04c2 	add.w	r4, r3, r2, lsl #3
 8001718:	6060      	str	r0, [r4, #4]
				xQueueRegistry[ ux ].pcQueueName = pcQueueName;
 800171a:	f843 1032 	str.w	r1, [r3, r2, lsl #3]
			else
			{
				mtCOVERAGE_TEST_MARKER();
			}
		}
	}
 800171e:	bc10      	pop	{r4}
 8001720:	4770      	bx	lr
		for( ux = ( UBaseType_t ) 0U; ux < ( UBaseType_t ) configQUEUE_REGISTRY_SIZE; ux++ )
 8001722:	2201      	movs	r2, #1
 8001724:	e7f5      	b.n	8001712 <vQueueAddToRegistry+0x26>
 8001726:	2202      	movs	r2, #2
 8001728:	e7f3      	b.n	8001712 <vQueueAddToRegistry+0x26>
 800172a:	2203      	movs	r2, #3
 800172c:	e7f1      	b.n	8001712 <vQueueAddToRegistry+0x26>
 800172e:	2204      	movs	r2, #4
 8001730:	e7ef      	b.n	8001712 <vQueueAddToRegistry+0x26>
 8001732:	2205      	movs	r2, #5
 8001734:	e7ed      	b.n	8001712 <vQueueAddToRegistry+0x26>
 8001736:	2207      	movs	r2, #7
 8001738:	e7eb      	b.n	8001712 <vQueueAddToRegistry+0x26>
 800173a:	bf00      	nop
 800173c:	20001944 	.word	0x20001944

08001740 <vQueueWaitForMessageRestricted>:
/*-----------------------------------------------------------*/

#if ( configUSE_TIMERS == 1 )

	void vQueueWaitForMessageRestricted( QueueHandle_t xQueue, TickType_t xTicksToWait, const BaseType_t xWaitIndefinitely )
	{
 8001740:	b570      	push	{r4, r5, r6, lr}
 8001742:	4605      	mov	r5, r0
 8001744:	460c      	mov	r4, r1
 8001746:	4616      	mov	r6, r2
		will not actually cause the task to block, just place it on a blocked
		list.  It will not block until the scheduler is unlocked - at which
		time a yield will be performed.  If an item is added to the queue while
		the queue is locked, and the calling task blocks on the queue, then the
		calling task will be immediately unblocked when the queue is unlocked. */
		prvLockQueue( pxQueue );
 8001748:	f001 f854 	bl	80027f4 <vPortEnterCritical>
 800174c:	f895 3044 	ldrb.w	r3, [r5, #68]	; 0x44
 8001750:	2bff      	cmp	r3, #255	; 0xff
 8001752:	bf04      	itt	eq
 8001754:	2300      	moveq	r3, #0
 8001756:	f885 3044 	strbeq.w	r3, [r5, #68]	; 0x44
 800175a:	f895 3045 	ldrb.w	r3, [r5, #69]	; 0x45
 800175e:	2bff      	cmp	r3, #255	; 0xff
 8001760:	bf04      	itt	eq
 8001762:	2300      	moveq	r3, #0
 8001764:	f885 3045 	strbeq.w	r3, [r5, #69]	; 0x45
 8001768:	f001 f866 	bl	8002838 <vPortExitCritical>
		if( pxQueue->uxMessagesWaiting == ( UBaseType_t ) 0U )
 800176c:	6bab      	ldr	r3, [r5, #56]	; 0x38
 800176e:	b92b      	cbnz	r3, 800177c <vQueueWaitForMessageRestricted+0x3c>
		{
			/* There is nothing in the queue, block for the specified period. */
			vTaskPlaceOnEventListRestricted( &( pxQueue->xTasksWaitingToReceive ), xTicksToWait, xWaitIndefinitely );
 8001770:	4632      	mov	r2, r6
 8001772:	4621      	mov	r1, r4
 8001774:	f105 0024 	add.w	r0, r5, #36	; 0x24
 8001778:	f000 fcd8 	bl	800212c <vTaskPlaceOnEventListRestricted>
	taskENTER_CRITICAL();
 800177c:	f001 f83a 	bl	80027f4 <vPortEnterCritical>
		int8_t cTxLock = pxQueue->cTxLock;
 8001780:	f895 4045 	ldrb.w	r4, [r5, #69]	; 0x45
 8001784:	b264      	sxtb	r4, r4
		while( cTxLock > queueLOCKED_UNMODIFIED )
 8001786:	2c00      	cmp	r4, #0
 8001788:	dd16      	ble.n	80017b8 <vQueueWaitForMessageRestricted+0x78>
				if( listLIST_IS_EMPTY( &( pxQueue->xTasksWaitingToReceive ) ) == pdFALSE )
 800178a:	6a6b      	ldr	r3, [r5, #36]	; 0x24
 800178c:	b1a3      	cbz	r3, 80017b8 <vQueueWaitForMessageRestricted+0x78>
 800178e:	f105 0624 	add.w	r6, r5, #36	; 0x24
 8001792:	e005      	b.n	80017a0 <vQueueWaitForMessageRestricted+0x60>
 8001794:	3c01      	subs	r4, #1
 8001796:	b2e3      	uxtb	r3, r4
 8001798:	b25c      	sxtb	r4, r3
		while( cTxLock > queueLOCKED_UNMODIFIED )
 800179a:	b16b      	cbz	r3, 80017b8 <vQueueWaitForMessageRestricted+0x78>
				if( listLIST_IS_EMPTY( &( pxQueue->xTasksWaitingToReceive ) ) == pdFALSE )
 800179c:	6a6b      	ldr	r3, [r5, #36]	; 0x24
 800179e:	b15b      	cbz	r3, 80017b8 <vQueueWaitForMessageRestricted+0x78>
					if( xTaskRemoveFromEventList( &( pxQueue->xTasksWaitingToReceive ) ) != pdFALSE )
 80017a0:	4630      	mov	r0, r6
 80017a2:	f000 fd0d 	bl	80021c0 <xTaskRemoveFromEventList>
 80017a6:	2800      	cmp	r0, #0
 80017a8:	d0f4      	beq.n	8001794 <vQueueWaitForMessageRestricted+0x54>
 80017aa:	3c01      	subs	r4, #1
						vTaskMissedYield();
 80017ac:	f000 fda0 	bl	80022f0 <vTaskMissedYield>
 80017b0:	b2e3      	uxtb	r3, r4
 80017b2:	b25c      	sxtb	r4, r3
		while( cTxLock > queueLOCKED_UNMODIFIED )
 80017b4:	2b00      	cmp	r3, #0
 80017b6:	d1f1      	bne.n	800179c <vQueueWaitForMessageRestricted+0x5c>
		pxQueue->cTxLock = queueUNLOCKED;
 80017b8:	23ff      	movs	r3, #255	; 0xff
 80017ba:	f885 3045 	strb.w	r3, [r5, #69]	; 0x45
	taskEXIT_CRITICAL();
 80017be:	f001 f83b 	bl	8002838 <vPortExitCritical>
	taskENTER_CRITICAL();
 80017c2:	f001 f817 	bl	80027f4 <vPortEnterCritical>
		int8_t cRxLock = pxQueue->cRxLock;
 80017c6:	f895 4044 	ldrb.w	r4, [r5, #68]	; 0x44
 80017ca:	b264      	sxtb	r4, r4
		while( cRxLock > queueLOCKED_UNMODIFIED )
 80017cc:	2c00      	cmp	r4, #0
 80017ce:	dd16      	ble.n	80017fe <vQueueWaitForMessageRestricted+0xbe>
			if( listLIST_IS_EMPTY( &( pxQueue->xTasksWaitingToSend ) ) == pdFALSE )
 80017d0:	692b      	ldr	r3, [r5, #16]
 80017d2:	b1a3      	cbz	r3, 80017fe <vQueueWaitForMessageRestricted+0xbe>
 80017d4:	f105 0610 	add.w	r6, r5, #16
 80017d8:	e005      	b.n	80017e6 <vQueueWaitForMessageRestricted+0xa6>
 80017da:	3c01      	subs	r4, #1
 80017dc:	b2e3      	uxtb	r3, r4
 80017de:	b25c      	sxtb	r4, r3
		while( cRxLock > queueLOCKED_UNMODIFIED )
 80017e0:	b16b      	cbz	r3, 80017fe <vQueueWaitForMessageRestricted+0xbe>
			if( listLIST_IS_EMPTY( &( pxQueue->xTasksWaitingToSend ) ) == pdFALSE )
 80017e2:	692b      	ldr	r3, [r5, #16]
 80017e4:	b15b      	cbz	r3, 80017fe <vQueueWaitForMessageRestricted+0xbe>
				if( xTaskRemoveFromEventList( &( pxQueue->xTasksWaitingToSend ) ) != pdFALSE )
 80017e6:	4630      	mov	r0, r6
 80017e8:	f000 fcea 	bl	80021c0 <xTaskRemoveFromEventList>
 80017ec:	2800      	cmp	r0, #0
 80017ee:	d0f4      	beq.n	80017da <vQueueWaitForMessageRestricted+0x9a>
 80017f0:	3c01      	subs	r4, #1
					vTaskMissedYield();
 80017f2:	f000 fd7d 	bl	80022f0 <vTaskMissedYield>
 80017f6:	b2e3      	uxtb	r3, r4
 80017f8:	b25c      	sxtb	r4, r3
		while( cRxLock > queueLOCKED_UNMODIFIED )
 80017fa:	2b00      	cmp	r3, #0
 80017fc:	d1f1      	bne.n	80017e2 <vQueueWaitForMessageRestricted+0xa2>
		pxQueue->cRxLock = queueUNLOCKED;
 80017fe:	23ff      	movs	r3, #255	; 0xff
 8001800:	f885 3044 	strb.w	r3, [r5, #68]	; 0x44
		else
		{
			mtCOVERAGE_TEST_MARKER();
		}
		prvUnlockQueue( pxQueue );
	}
 8001804:	e8bd 4070 	ldmia.w	sp!, {r4, r5, r6, lr}
	taskEXIT_CRITICAL();
 8001808:	f001 b816 	b.w	8002838 <vPortExitCritical>

0800180c <prvAddNewTaskToReadyList>:
	}
}
/*-----------------------------------------------------------*/

static void prvAddNewTaskToReadyList( TCB_t *pxNewTCB )
{
 800180c:	e92d 41f0 	stmdb	sp!, {r4, r5, r6, r7, r8, lr}
 8001810:	4605      	mov	r5, r0
	/* Ensure interrupts don't access the task lists while the lists are being
	updated. */
	taskENTER_CRITICAL();
 8001812:	f000 ffef 	bl	80027f4 <vPortEnterCritical>
	{
		uxCurrentNumberOfTasks++;
 8001816:	4a33      	ldr	r2, [pc, #204]	; (80018e4 <prvAddNewTaskToReadyList+0xd8>)
		if( pxCurrentTCB == NULL )
 8001818:	4e33      	ldr	r6, [pc, #204]	; (80018e8 <prvAddNewTaskToReadyList+0xdc>)
		uxCurrentNumberOfTasks++;
 800181a:	6813      	ldr	r3, [r2, #0]
 800181c:	3301      	adds	r3, #1
 800181e:	6013      	str	r3, [r2, #0]
		if( pxCurrentTCB == NULL )
 8001820:	6833      	ldr	r3, [r6, #0]
 8001822:	2b00      	cmp	r3, #0
 8001824:	d031      	beq.n	800188a <prvAddNewTaskToReadyList+0x7e>
		else
		{
			/* If the scheduler is not already running, make this task the
			current task if it is the highest priority task to be created
			so far. */
			if( xSchedulerRunning == pdFALSE )
 8001826:	4c31      	ldr	r4, [pc, #196]	; (80018ec <prvAddNewTaskToReadyList+0xe0>)
 8001828:	6ae8      	ldr	r0, [r5, #44]	; 0x2c
 800182a:	6823      	ldr	r3, [r4, #0]
 800182c:	b333      	cbz	r3, 800187c <prvAddNewTaskToReadyList+0x70>
 800182e:	4f30      	ldr	r7, [pc, #192]	; (80018f0 <prvAddNewTaskToReadyList+0xe4>)
			pxNewTCB->uxTCBNumber = uxTaskNumber;
		}
		#endif /* configUSE_TRACE_FACILITY */
		traceTASK_CREATE( pxNewTCB );

		prvAddTaskToReadyList( pxNewTCB );
 8001830:	4930      	ldr	r1, [pc, #192]	; (80018f4 <prvAddNewTaskToReadyList+0xe8>)
		uxTaskNumber++;
 8001832:	4a31      	ldr	r2, [pc, #196]	; (80018f8 <prvAddNewTaskToReadyList+0xec>)
		prvAddTaskToReadyList( pxNewTCB );
 8001834:	f8d1 c000 	ldr.w	ip, [r1]
		uxTaskNumber++;
 8001838:	6813      	ldr	r3, [r2, #0]
		prvAddTaskToReadyList( pxNewTCB );
 800183a:	4584      	cmp	ip, r0
		uxTaskNumber++;
 800183c:	f103 0301 	add.w	r3, r3, #1
		prvAddTaskToReadyList( pxNewTCB );
 8001840:	bf38      	it	cc
 8001842:	6008      	strcc	r0, [r1, #0]
 8001844:	eb00 0080 	add.w	r0, r0, r0, lsl #2
			pxNewTCB->uxTCBNumber = uxTaskNumber;
 8001848:	646b      	str	r3, [r5, #68]	; 0x44
		prvAddTaskToReadyList( pxNewTCB );
 800184a:	eb07 0080 	add.w	r0, r7, r0, lsl #2
 800184e:	1d29      	adds	r1, r5, #4
		uxTaskNumber++;
 8001850:	6013      	str	r3, [r2, #0]
		prvAddTaskToReadyList( pxNewTCB );
 8001852:	f7ff fb47 	bl	8000ee4 <vListInsertEnd>

		portSETUP_TCB( pxNewTCB );
	}
	taskEXIT_CRITICAL();
 8001856:	f000 ffef 	bl	8002838 <vPortExitCritical>

	if( xSchedulerRunning != pdFALSE )
 800185a:	6823      	ldr	r3, [r4, #0]
 800185c:	b163      	cbz	r3, 8001878 <prvAddNewTaskToReadyList+0x6c>
	{
		/* If the created task is of a higher priority than the current task
		then it should run now. */
		if( pxCurrentTCB->uxPriority < pxNewTCB->uxPriority )
 800185e:	6832      	ldr	r2, [r6, #0]
 8001860:	6aeb      	ldr	r3, [r5, #44]	; 0x2c
 8001862:	6ad2      	ldr	r2, [r2, #44]	; 0x2c
 8001864:	429a      	cmp	r2, r3
 8001866:	d207      	bcs.n	8001878 <prvAddNewTaskToReadyList+0x6c>
		{
			taskYIELD_IF_USING_PREEMPTION();
 8001868:	f04f 5280 	mov.w	r2, #268435456	; 0x10000000
 800186c:	4b23      	ldr	r3, [pc, #140]	; (80018fc <prvAddNewTaskToReadyList+0xf0>)
 800186e:	601a      	str	r2, [r3, #0]
 8001870:	f3bf 8f4f 	dsb	sy
 8001874:	f3bf 8f6f 	isb	sy
	}
	else
	{
		mtCOVERAGE_TEST_MARKER();
	}
}
 8001878:	e8bd 81f0 	ldmia.w	sp!, {r4, r5, r6, r7, r8, pc}
				if( pxCurrentTCB->uxPriority <= pxNewTCB->uxPriority )
 800187c:	6833      	ldr	r3, [r6, #0]
 800187e:	4f1c      	ldr	r7, [pc, #112]	; (80018f0 <prvAddNewTaskToReadyList+0xe4>)
 8001880:	6adb      	ldr	r3, [r3, #44]	; 0x2c
 8001882:	4283      	cmp	r3, r0
					pxCurrentTCB = pxNewTCB;
 8001884:	bf98      	it	ls
 8001886:	6035      	strls	r5, [r6, #0]
 8001888:	e7d2      	b.n	8001830 <prvAddNewTaskToReadyList+0x24>
			pxCurrentTCB = pxNewTCB;
 800188a:	6035      	str	r5, [r6, #0]
			if( uxCurrentNumberOfTasks == ( UBaseType_t ) 1 )
 800188c:	6813      	ldr	r3, [r2, #0]
 800188e:	2b01      	cmp	r3, #1
 8001890:	d003      	beq.n	800189a <prvAddNewTaskToReadyList+0x8e>
 8001892:	6ae8      	ldr	r0, [r5, #44]	; 0x2c
 8001894:	4f16      	ldr	r7, [pc, #88]	; (80018f0 <prvAddNewTaskToReadyList+0xe4>)
 8001896:	4c15      	ldr	r4, [pc, #84]	; (80018ec <prvAddNewTaskToReadyList+0xe0>)
 8001898:	e7ca      	b.n	8001830 <prvAddNewTaskToReadyList+0x24>
 800189a:	4f15      	ldr	r7, [pc, #84]	; (80018f0 <prvAddNewTaskToReadyList+0xe4>)
 800189c:	463c      	mov	r4, r7
 800189e:	f507 688c 	add.w	r8, r7, #1120	; 0x460
{
UBaseType_t uxPriority;

	for( uxPriority = ( UBaseType_t ) 0U; uxPriority < ( UBaseType_t ) configMAX_PRIORITIES; uxPriority++ )
	{
		vListInitialise( &( pxReadyTasksLists[ uxPriority ] ) );
 80018a2:	4620      	mov	r0, r4
 80018a4:	3414      	adds	r4, #20
 80018a6:	f7ff fb0d 	bl	8000ec4 <vListInitialise>
	for( uxPriority = ( UBaseType_t ) 0U; uxPriority < ( UBaseType_t ) configMAX_PRIORITIES; uxPriority++ )
 80018aa:	45a0      	cmp	r8, r4
 80018ac:	d1f9      	bne.n	80018a2 <prvAddNewTaskToReadyList+0x96>
	}

	vListInitialise( &xDelayedTaskList1 );
 80018ae:	f8df 8068 	ldr.w	r8, [pc, #104]	; 8001918 <prvAddNewTaskToReadyList+0x10c>
	vListInitialise( &xDelayedTaskList2 );
 80018b2:	4c13      	ldr	r4, [pc, #76]	; (8001900 <prvAddNewTaskToReadyList+0xf4>)
	vListInitialise( &xDelayedTaskList1 );
 80018b4:	4640      	mov	r0, r8
 80018b6:	f7ff fb05 	bl	8000ec4 <vListInitialise>
	vListInitialise( &xDelayedTaskList2 );
 80018ba:	4620      	mov	r0, r4
 80018bc:	f7ff fb02 	bl	8000ec4 <vListInitialise>
	vListInitialise( &xPendingReadyList );
 80018c0:	4810      	ldr	r0, [pc, #64]	; (8001904 <prvAddNewTaskToReadyList+0xf8>)
 80018c2:	f7ff faff 	bl	8000ec4 <vListInitialise>

	#if ( INCLUDE_vTaskDelete == 1 )
	{
		vListInitialise( &xTasksWaitingTermination );
 80018c6:	4810      	ldr	r0, [pc, #64]	; (8001908 <prvAddNewTaskToReadyList+0xfc>)
 80018c8:	f7ff fafc 	bl	8000ec4 <vListInitialise>
	}
	#endif /* INCLUDE_vTaskDelete */

	#if ( INCLUDE_vTaskSuspend == 1 )
	{
		vListInitialise( &xSuspendedTaskList );
 80018cc:	480f      	ldr	r0, [pc, #60]	; (800190c <prvAddNewTaskToReadyList+0x100>)
 80018ce:	f7ff faf9 	bl	8000ec4 <vListInitialise>
	}
	#endif /* INCLUDE_vTaskSuspend */

	/* Start with pxDelayedTaskList using list1 and the pxOverflowDelayedTaskList
	using list2. */
	pxDelayedTaskList = &xDelayedTaskList1;
 80018d2:	4a0f      	ldr	r2, [pc, #60]	; (8001910 <prvAddNewTaskToReadyList+0x104>)
	pxOverflowDelayedTaskList = &xDelayedTaskList2;
 80018d4:	4b0f      	ldr	r3, [pc, #60]	; (8001914 <prvAddNewTaskToReadyList+0x108>)
	pxDelayedTaskList = &xDelayedTaskList1;
 80018d6:	f8c2 8000 	str.w	r8, [r2]
 80018da:	6ae8      	ldr	r0, [r5, #44]	; 0x2c
	pxOverflowDelayedTaskList = &xDelayedTaskList2;
 80018dc:	601c      	str	r4, [r3, #0]
 80018de:	4c03      	ldr	r4, [pc, #12]	; (80018ec <prvAddNewTaskToReadyList+0xe0>)
 80018e0:	e7a6      	b.n	8001830 <prvAddNewTaskToReadyList+0x24>
 80018e2:	bf00      	nop
 80018e4:	20000b58 	.word	0x20000b58
 80018e8:	200006ec 	.word	0x200006ec
 80018ec:	20000bb4 	.word	0x20000bb4
 80018f0:	200006f8 	.word	0x200006f8
 80018f4:	20000b6c 	.word	0x20000b6c
 80018f8:	20000b68 	.word	0x20000b68
 80018fc:	e000ed04 	.word	0xe000ed04
 8001900:	20000b84 	.word	0x20000b84
 8001904:	20000ba0 	.word	0x20000ba0
 8001908:	20000bcc 	.word	0x20000bcc
 800190c:	20000bb8 	.word	0x20000bb8
 8001910:	200006f0 	.word	0x200006f0
 8001914:	200006f4 	.word	0x200006f4
 8001918:	20000b70 	.word	0x20000b70

0800191c <prvInitialiseNewTask.isra.2>:
static void prvInitialiseNewTask( 	TaskFunction_t pxTaskCode,
 800191c:	e92d 4ff8 	stmdb	sp!, {r3, r4, r5, r6, r7, r8, r9, sl, fp, lr}
 8001920:	468a      	mov	sl, r1
 8001922:	e9dd 570a 	ldrd	r5, r7, [sp, #40]	; 0x28
 8001926:	9c0c      	ldr	r4, [sp, #48]	; 0x30
		( void ) memset( pxNewTCB->pxStack, ( int ) tskSTACK_FILL_BYTE, ( size_t ) ulStackDepth * sizeof( StackType_t ) );
 8001928:	ea4f 0b82 	mov.w	fp, r2, lsl #2
 800192c:	465a      	mov	r2, fp
static void prvInitialiseNewTask( 	TaskFunction_t pxTaskCode,
 800192e:	4680      	mov	r8, r0
		( void ) memset( pxNewTCB->pxStack, ( int ) tskSTACK_FILL_BYTE, ( size_t ) ulStackDepth * sizeof( StackType_t ) );
 8001930:	21a5      	movs	r1, #165	; 0xa5
 8001932:	6b20      	ldr	r0, [r4, #48]	; 0x30
static void prvInitialiseNewTask( 	TaskFunction_t pxTaskCode,
 8001934:	4699      	mov	r9, r3
		( void ) memset( pxNewTCB->pxStack, ( int ) tskSTACK_FILL_BYTE, ( size_t ) ulStackDepth * sizeof( StackType_t ) );
 8001936:	f001 f968 	bl	8002c0a <memset>
		pxTopOfStack = pxNewTCB->pxStack + ( ulStackDepth - ( uint32_t ) 1 );
 800193a:	6b26      	ldr	r6, [r4, #48]	; 0x30
 800193c:	f1ab 0b04 	sub.w	fp, fp, #4
 8001940:	445e      	add	r6, fp
 8001942:	f10a 33ff 	add.w	r3, sl, #4294967295
		pxTopOfStack = ( StackType_t * ) ( ( ( portPOINTER_SIZE_TYPE ) pxTopOfStack ) & ( ~( ( portPOINTER_SIZE_TYPE ) portBYTE_ALIGNMENT_MASK ) ) ); /*lint !e923 MISRA exception.  Avoiding casts between pointers and integers is not practical.  Size differences accounted for using portPOINTER_SIZE_TYPE type. */
 8001946:	f026 0607 	bic.w	r6, r6, #7
 800194a:	f10a 0a0f 	add.w	sl, sl, #15
 800194e:	f104 0234 	add.w	r2, r4, #52	; 0x34
		pxNewTCB->pcTaskName[ x ] = pcName[ x ];
 8001952:	f813 1f01 	ldrb.w	r1, [r3, #1]!
 8001956:	f802 1b01 	strb.w	r1, [r2], #1
		if( pcName[ x ] == 0x00 )
 800195a:	7819      	ldrb	r1, [r3, #0]
 800195c:	b109      	cbz	r1, 8001962 <prvInitialiseNewTask.isra.2+0x46>
	for( x = ( UBaseType_t ) 0; x < ( UBaseType_t ) configMAX_TASK_NAME_LEN; x++ )
 800195e:	4553      	cmp	r3, sl
 8001960:	d1f7      	bne.n	8001952 <prvInitialiseNewTask.isra.2+0x36>
 8001962:	2d37      	cmp	r5, #55	; 0x37
 8001964:	bf28      	it	cs
 8001966:	2537      	movcs	r5, #55	; 0x37
	pxNewTCB->pcTaskName[ configMAX_TASK_NAME_LEN - 1 ] = '\0';
 8001968:	f04f 0a00 	mov.w	sl, #0
	pxNewTCB->uxPriority = uxPriority;
 800196c:	62e5      	str	r5, [r4, #44]	; 0x2c
		pxNewTCB->uxBasePriority = uxPriority;
 800196e:	64e5      	str	r5, [r4, #76]	; 0x4c
	vListInitialiseItem( &( pxNewTCB->xStateListItem ) );
 8001970:	1d20      	adds	r0, r4, #4
	pxNewTCB->pcTaskName[ configMAX_TASK_NAME_LEN - 1 ] = '\0';
 8001972:	f884 a043 	strb.w	sl, [r4, #67]	; 0x43
		pxNewTCB->uxMutexesHeld = 0;
 8001976:	f8c4 a050 	str.w	sl, [r4, #80]	; 0x50
	vListInitialiseItem( &( pxNewTCB->xStateListItem ) );
 800197a:	f7ff faaf 	bl	8000edc <vListInitialiseItem>
	listSET_LIST_ITEM_VALUE( &( pxNewTCB->xEventListItem ), ( TickType_t ) configMAX_PRIORITIES - ( TickType_t ) uxPriority ); /*lint !e961 MISRA exception as the casts are only redundant for some ports. */
 800197e:	f1c5 0538 	rsb	r5, r5, #56	; 0x38
	vListInitialiseItem( &( pxNewTCB->xEventListItem ) );
 8001982:	f104 0018 	add.w	r0, r4, #24
 8001986:	f7ff faa9 	bl	8000edc <vListInitialiseItem>
		pxNewTCB->ulNotifiedValue = 0;
 800198a:	f8c4 a054 	str.w	sl, [r4, #84]	; 0x54
	listSET_LIST_ITEM_VALUE( &( pxNewTCB->xEventListItem ), ( TickType_t ) configMAX_PRIORITIES - ( TickType_t ) uxPriority ); /*lint !e961 MISRA exception as the casts are only redundant for some ports. */
 800198e:	61a5      	str	r5, [r4, #24]
	listSET_LIST_ITEM_OWNER( &( pxNewTCB->xStateListItem ), pxNewTCB );
 8001990:	6124      	str	r4, [r4, #16]
		pxNewTCB->ucNotifyState = taskNOT_WAITING_NOTIFICATION;
 8001992:	f884 a058 	strb.w	sl, [r4, #88]	; 0x58
	listSET_LIST_ITEM_OWNER( &( pxNewTCB->xEventListItem ), pxNewTCB );
 8001996:	6264      	str	r4, [r4, #36]	; 0x24
		pxNewTCB->pxTopOfStack = pxPortInitialiseStack( pxTopOfStack, pxTaskCode, pvParameters );
 8001998:	464a      	mov	r2, r9
 800199a:	4641      	mov	r1, r8
 800199c:	4630      	mov	r0, r6
 800199e:	f000 ff03 	bl	80027a8 <pxPortInitialiseStack>
 80019a2:	6020      	str	r0, [r4, #0]
	if( ( void * ) pxCreatedTask != NULL )
 80019a4:	b107      	cbz	r7, 80019a8 <prvInitialiseNewTask.isra.2+0x8c>
		*pxCreatedTask = ( TaskHandle_t ) pxNewTCB;
 80019a6:	603c      	str	r4, [r7, #0]
}
 80019a8:	e8bd 8ff8 	ldmia.w	sp!, {r3, r4, r5, r6, r7, r8, r9, sl, fp, pc}

080019ac <prvAddCurrentTaskToDelayedList>:
#endif /* configUSE_TASK_NOTIFICATIONS */
/*-----------------------------------------------------------*/


static void prvAddCurrentTaskToDelayedList( TickType_t xTicksToWait, const BaseType_t xCanBlockIndefinitely )
{
 80019ac:	b5f8      	push	{r3, r4, r5, r6, r7, lr}
 80019ae:	4605      	mov	r5, r0
TickType_t xTimeToWake;
const TickType_t xConstTickCount = xTickCount;
 80019b0:	4b15      	ldr	r3, [pc, #84]	; (8001a08 <prvAddCurrentTaskToDelayedList+0x5c>)
	}
	#endif

	/* Remove the task from the ready list before adding it to the blocked list
	as the same list item is used for both lists. */
	if( uxListRemove( &( pxCurrentTCB->xStateListItem ) ) == ( UBaseType_t ) 0 )
 80019b2:	4e16      	ldr	r6, [pc, #88]	; (8001a0c <prvAddCurrentTaskToDelayedList+0x60>)
const TickType_t xConstTickCount = xTickCount;
 80019b4:	681c      	ldr	r4, [r3, #0]
	if( uxListRemove( &( pxCurrentTCB->xStateListItem ) ) == ( UBaseType_t ) 0 )
 80019b6:	6830      	ldr	r0, [r6, #0]
{
 80019b8:	460f      	mov	r7, r1
	if( uxListRemove( &( pxCurrentTCB->xStateListItem ) ) == ( UBaseType_t ) 0 )
 80019ba:	3004      	adds	r0, #4
 80019bc:	f7ff faba 	bl	8000f34 <uxListRemove>
		mtCOVERAGE_TEST_MARKER();
	}

	#if ( INCLUDE_vTaskSuspend == 1 )
	{
		if( ( xTicksToWait == portMAX_DELAY ) && ( xCanBlockIndefinitely != pdFALSE ) )
 80019c0:	1c6b      	adds	r3, r5, #1
 80019c2:	4633      	mov	r3, r6
 80019c4:	d107      	bne.n	80019d6 <prvAddCurrentTaskToDelayedList+0x2a>
 80019c6:	b137      	cbz	r7, 80019d6 <prvAddCurrentTaskToDelayedList+0x2a>
		{
			/* Add the task to the suspended task list instead of a delayed task
			list to ensure it is not woken by a timing event.  It will block
			indefinitely. */
			vListInsertEnd( &xSuspendedTaskList, &( pxCurrentTCB->xStateListItem ) );
 80019c8:	6831      	ldr	r1, [r6, #0]
 80019ca:	4811      	ldr	r0, [pc, #68]	; (8001a10 <prvAddCurrentTaskToDelayedList+0x64>)
 80019cc:	3104      	adds	r1, #4

		/* Avoid compiler warning when INCLUDE_vTaskSuspend is not 1. */
		( void ) xCanBlockIndefinitely;
	}
	#endif /* INCLUDE_vTaskSuspend */
}
 80019ce:	e8bd 40f8 	ldmia.w	sp!, {r3, r4, r5, r6, r7, lr}
			vListInsertEnd( &xSuspendedTaskList, &( pxCurrentTCB->xStateListItem ) );
 80019d2:	f7ff ba87 	b.w	8000ee4 <vListInsertEnd>
			listSET_LIST_ITEM_VALUE( &( pxCurrentTCB->xStateListItem ), xTimeToWake );
 80019d6:	681a      	ldr	r2, [r3, #0]
 80019d8:	1964      	adds	r4, r4, r5
 80019da:	6054      	str	r4, [r2, #4]
			if( xTimeToWake < xConstTickCount )
 80019dc:	d307      	bcc.n	80019ee <prvAddCurrentTaskToDelayedList+0x42>
				vListInsert( pxOverflowDelayedTaskList, &( pxCurrentTCB->xStateListItem ) );
 80019de:	4a0d      	ldr	r2, [pc, #52]	; (8001a14 <prvAddCurrentTaskToDelayedList+0x68>)
 80019e0:	6810      	ldr	r0, [r2, #0]
 80019e2:	6819      	ldr	r1, [r3, #0]
}
 80019e4:	e8bd 40f8 	ldmia.w	sp!, {r3, r4, r5, r6, r7, lr}
				vListInsert( pxOverflowDelayedTaskList, &( pxCurrentTCB->xStateListItem ) );
 80019e8:	3104      	adds	r1, #4
 80019ea:	f7ff ba89 	b.w	8000f00 <vListInsert>
				vListInsert( pxDelayedTaskList, &( pxCurrentTCB->xStateListItem ) );
 80019ee:	4a0a      	ldr	r2, [pc, #40]	; (8001a18 <prvAddCurrentTaskToDelayedList+0x6c>)
 80019f0:	6810      	ldr	r0, [r2, #0]
 80019f2:	6819      	ldr	r1, [r3, #0]
 80019f4:	3104      	adds	r1, #4
 80019f6:	f7ff fa83 	bl	8000f00 <vListInsert>
				if( xTimeToWake < xNextTaskUnblockTime )
 80019fa:	4b08      	ldr	r3, [pc, #32]	; (8001a1c <prvAddCurrentTaskToDelayedList+0x70>)
 80019fc:	681a      	ldr	r2, [r3, #0]
 80019fe:	42a2      	cmp	r2, r4
					xNextTaskUnblockTime = xTimeToWake;
 8001a00:	bf88      	it	hi
 8001a02:	601c      	strhi	r4, [r3, #0]
}
 8001a04:	bdf8      	pop	{r3, r4, r5, r6, r7, pc}
 8001a06:	bf00      	nop
 8001a08:	20000be0 	.word	0x20000be0
 8001a0c:	200006ec 	.word	0x200006ec
 8001a10:	20000bb8 	.word	0x20000bb8
 8001a14:	200006f4 	.word	0x200006f4
 8001a18:	200006f0 	.word	0x200006f0
 8001a1c:	20000b98 	.word	0x20000b98

08001a20 <prvIdleTask>:
{
 8001a20:	b580      	push	{r7, lr}
				taskYIELD();
 8001a22:	f04f 5780 	mov.w	r7, #268435456	; 0x10000000
 8001a26:	f8df a08c 	ldr.w	sl, [pc, #140]	; 8001ab4 <prvIdleTask+0x94>
 8001a2a:	4e20      	ldr	r6, [pc, #128]	; (8001aac <prvIdleTask+0x8c>)
 8001a2c:	4d20      	ldr	r5, [pc, #128]	; (8001ab0 <prvIdleTask+0x90>)
 8001a2e:	f8df 9088 	ldr.w	r9, [pc, #136]	; 8001ab8 <prvIdleTask+0x98>
 8001a32:	f8df 8088 	ldr.w	r8, [pc, #136]	; 8001abc <prvIdleTask+0x9c>
		while( uxDeletedTasksWaitingCleanUp > ( UBaseType_t ) 0U )
 8001a36:	682b      	ldr	r3, [r5, #0]
 8001a38:	b343      	cbz	r3, 8001a8c <prvIdleTask+0x6c>
			taskENTER_CRITICAL();
 8001a3a:	f000 fedb 	bl	80027f4 <vPortEnterCritical>
				pxTCB = ( TCB_t * ) listGET_OWNER_OF_HEAD_ENTRY( ( &xTasksWaitingTermination ) );
 8001a3e:	f8da 300c 	ldr.w	r3, [sl, #12]
 8001a42:	68dc      	ldr	r4, [r3, #12]
				( void ) uxListRemove( &( pxTCB->xStateListItem ) );
 8001a44:	1d20      	adds	r0, r4, #4
 8001a46:	f7ff fa75 	bl	8000f34 <uxListRemove>
				--uxCurrentNumberOfTasks;
 8001a4a:	6833      	ldr	r3, [r6, #0]
 8001a4c:	3b01      	subs	r3, #1
 8001a4e:	6033      	str	r3, [r6, #0]
				--uxDeletedTasksWaitingCleanUp;
 8001a50:	682b      	ldr	r3, [r5, #0]
 8001a52:	3b01      	subs	r3, #1
 8001a54:	602b      	str	r3, [r5, #0]
			taskEXIT_CRITICAL();
 8001a56:	f000 feef 	bl	8002838 <vPortExitCritical>
			if( pxTCB->ucStaticallyAllocated == tskDYNAMICALLY_ALLOCATED_STACK_AND_TCB )
 8001a5a:	f894 3059 	ldrb.w	r3, [r4, #89]	; 0x59
 8001a5e:	b163      	cbz	r3, 8001a7a <prvIdleTask+0x5a>
			else if( pxTCB->ucStaticallyAllocated == tskSTATICALLY_ALLOCATED_STACK_ONLY )
 8001a60:	2b01      	cmp	r3, #1
 8001a62:	d01e      	beq.n	8001aa2 <prvIdleTask+0x82>
				configASSERT( pxTCB->ucStaticallyAllocated == tskSTATICALLY_ALLOCATED_STACK_AND_TCB	);
 8001a64:	2b02      	cmp	r3, #2
 8001a66:	d0e6      	beq.n	8001a36 <prvIdleTask+0x16>
 8001a68:	f04f 0350 	mov.w	r3, #80	; 0x50
 8001a6c:	f383 8811 	msr	BASEPRI, r3
 8001a70:	f3bf 8f6f 	isb	sy
 8001a74:	f3bf 8f4f 	dsb	sy
 8001a78:	e7fe      	b.n	8001a78 <prvIdleTask+0x58>
				vPortFree( pxTCB->pxStack );
 8001a7a:	6b20      	ldr	r0, [r4, #48]	; 0x30
 8001a7c:	f001 f85e 	bl	8002b3c <vPortFree>
				vPortFree( pxTCB );
 8001a80:	4620      	mov	r0, r4
 8001a82:	f001 f85b 	bl	8002b3c <vPortFree>
		while( uxDeletedTasksWaitingCleanUp > ( UBaseType_t ) 0U )
 8001a86:	682b      	ldr	r3, [r5, #0]
 8001a88:	2b00      	cmp	r3, #0
 8001a8a:	d1d6      	bne.n	8001a3a <prvIdleTask+0x1a>
			if( listCURRENT_LIST_LENGTH( &( pxReadyTasksLists[ tskIDLE_PRIORITY ] ) ) > ( UBaseType_t ) 1 )
 8001a8c:	f8d9 3000 	ldr.w	r3, [r9]
 8001a90:	2b01      	cmp	r3, #1
 8001a92:	d9d0      	bls.n	8001a36 <prvIdleTask+0x16>
				taskYIELD();
 8001a94:	f8c8 7000 	str.w	r7, [r8]
 8001a98:	f3bf 8f4f 	dsb	sy
 8001a9c:	f3bf 8f6f 	isb	sy
 8001aa0:	e7c9      	b.n	8001a36 <prvIdleTask+0x16>
				vPortFree( pxTCB );
 8001aa2:	4620      	mov	r0, r4
 8001aa4:	f001 f84a 	bl	8002b3c <vPortFree>
 8001aa8:	e7c5      	b.n	8001a36 <prvIdleTask+0x16>
 8001aaa:	bf00      	nop
 8001aac:	20000b58 	.word	0x20000b58
 8001ab0:	20000b5c 	.word	0x20000b5c
 8001ab4:	20000bcc 	.word	0x20000bcc
 8001ab8:	200006f8 	.word	0x200006f8
 8001abc:	e000ed04 	.word	0xe000ed04

08001ac0 <xTaskCreateStatic>:
	{
 8001ac0:	b5f0      	push	{r4, r5, r6, r7, lr}
 8001ac2:	b087      	sub	sp, #28
 8001ac4:	e9dd 650c 	ldrd	r6, r5, [sp, #48]	; 0x30
 8001ac8:	9c0e      	ldr	r4, [sp, #56]	; 0x38
		configASSERT( puxStackBuffer != NULL );
 8001aca:	b1bd      	cbz	r5, 8001afc <xTaskCreateStatic+0x3c>
		configASSERT( pxTaskBuffer != NULL );
 8001acc:	b16c      	cbz	r4, 8001aea <xTaskCreateStatic+0x2a>
			volatile size_t xSize = sizeof( StaticTask_t );
 8001ace:	275c      	movs	r7, #92	; 0x5c
 8001ad0:	9704      	str	r7, [sp, #16]
			configASSERT( xSize == sizeof( TCB_t ) );
 8001ad2:	9f04      	ldr	r7, [sp, #16]
 8001ad4:	2f5c      	cmp	r7, #92	; 0x5c
 8001ad6:	d01a      	beq.n	8001b0e <xTaskCreateStatic+0x4e>
 8001ad8:	f04f 0350 	mov.w	r3, #80	; 0x50
 8001adc:	f383 8811 	msr	BASEPRI, r3
 8001ae0:	f3bf 8f6f 	isb	sy
 8001ae4:	f3bf 8f4f 	dsb	sy
 8001ae8:	e7fe      	b.n	8001ae8 <xTaskCreateStatic+0x28>
 8001aea:	f04f 0350 	mov.w	r3, #80	; 0x50
 8001aee:	f383 8811 	msr	BASEPRI, r3
 8001af2:	f3bf 8f6f 	isb	sy
 8001af6:	f3bf 8f4f 	dsb	sy
 8001afa:	e7fe      	b.n	8001afa <xTaskCreateStatic+0x3a>
 8001afc:	f04f 0350 	mov.w	r3, #80	; 0x50
 8001b00:	f383 8811 	msr	BASEPRI, r3
 8001b04:	f3bf 8f6f 	isb	sy
 8001b08:	f3bf 8f4f 	dsb	sy
 8001b0c:	e7fe      	b.n	8001b0c <xTaskCreateStatic+0x4c>
				pxNewTCB->ucStaticallyAllocated = tskSTATICALLY_ALLOCATED_STACK_AND_TCB;
 8001b0e:	2702      	movs	r7, #2
			pxNewTCB->pxStack = ( StackType_t * ) puxStackBuffer;
 8001b10:	6325      	str	r5, [r4, #48]	; 0x30
			prvInitialiseNewTask( pxTaskCode, pcName, ulStackDepth, pvParameters, uxPriority, &xReturn, pxNewTCB, NULL );
 8001b12:	ad05      	add	r5, sp, #20
 8001b14:	9402      	str	r4, [sp, #8]
 8001b16:	9600      	str	r6, [sp, #0]
				pxNewTCB->ucStaticallyAllocated = tskSTATICALLY_ALLOCATED_STACK_AND_TCB;
 8001b18:	f884 7059 	strb.w	r7, [r4, #89]	; 0x59
			prvInitialiseNewTask( pxTaskCode, pcName, ulStackDepth, pvParameters, uxPriority, &xReturn, pxNewTCB, NULL );
 8001b1c:	9501      	str	r5, [sp, #4]
 8001b1e:	f7ff fefd 	bl	800191c <prvInitialiseNewTask.isra.2>
			prvAddNewTaskToReadyList( pxNewTCB );
 8001b22:	4620      	mov	r0, r4
 8001b24:	f7ff fe72 	bl	800180c <prvAddNewTaskToReadyList>
	}
 8001b28:	9805      	ldr	r0, [sp, #20]
 8001b2a:	b007      	add	sp, #28
 8001b2c:	bdf0      	pop	{r4, r5, r6, r7, pc}
 8001b2e:	bf00      	nop

08001b30 <xTaskCreate>:
	{
 8001b30:	e92d 47f0 	stmdb	sp!, {r4, r5, r6, r7, r8, r9, sl, lr}
			pxStack = ( StackType_t * ) pvPortMalloc( ( ( ( size_t ) usStackDepth ) * sizeof( StackType_t ) ) ); /*lint !e961 MISRA exception as the casts are only redundant for some ports. */
 8001b34:	0096      	lsls	r6, r2, #2
	{
 8001b36:	4680      	mov	r8, r0
			pxStack = ( StackType_t * ) pvPortMalloc( ( ( ( size_t ) usStackDepth ) * sizeof( StackType_t ) ) ); /*lint !e961 MISRA exception as the casts are only redundant for some ports. */
 8001b38:	4630      	mov	r0, r6
	{
 8001b3a:	460d      	mov	r5, r1
 8001b3c:	4699      	mov	r9, r3
 8001b3e:	9f09      	ldr	r7, [sp, #36]	; 0x24
			pxStack = ( StackType_t * ) pvPortMalloc( ( ( ( size_t ) usStackDepth ) * sizeof( StackType_t ) ) ); /*lint !e961 MISRA exception as the casts are only redundant for some ports. */
 8001b40:	f000 ff68 	bl	8002a14 <pvPortMalloc>
			if( pxStack != NULL )
 8001b44:	2800      	cmp	r0, #0
 8001b46:	f000 8099 	beq.w	8001c7c <xTaskCreate+0x14c>
 8001b4a:	4682      	mov	sl, r0
				pxNewTCB = ( TCB_t * ) pvPortMalloc( sizeof( TCB_t ) ); /*lint !e961 MISRA exception as the casts are only redundant for some paths. */
 8001b4c:	205c      	movs	r0, #92	; 0x5c
 8001b4e:	f000 ff61 	bl	8002a14 <pvPortMalloc>
				if( pxNewTCB != NULL )
 8001b52:	4604      	mov	r4, r0
 8001b54:	2800      	cmp	r0, #0
 8001b56:	f000 808a 	beq.w	8001c6e <xTaskCreate+0x13e>
				pxNewTCB->ucStaticallyAllocated = tskDYNAMICALLY_ALLOCATED_STACK_AND_TCB;
 8001b5a:	2300      	movs	r3, #0
					pxNewTCB->pxStack = pxStack;
 8001b5c:	f8c0 a030 	str.w	sl, [r0, #48]	; 0x30
		( void ) memset( pxNewTCB->pxStack, ( int ) tskSTACK_FILL_BYTE, ( size_t ) ulStackDepth * sizeof( StackType_t ) );
 8001b60:	4632      	mov	r2, r6
 8001b62:	4650      	mov	r0, sl
				pxNewTCB->ucStaticallyAllocated = tskDYNAMICALLY_ALLOCATED_STACK_AND_TCB;
 8001b64:	f884 3059 	strb.w	r3, [r4, #89]	; 0x59
		( void ) memset( pxNewTCB->pxStack, ( int ) tskSTACK_FILL_BYTE, ( size_t ) ulStackDepth * sizeof( StackType_t ) );
 8001b68:	21a5      	movs	r1, #165	; 0xa5
 8001b6a:	f001 f84e 	bl	8002c0a <memset>
		pxNewTCB->pcTaskName[ x ] = pcName[ x ];
 8001b6e:	782a      	ldrb	r2, [r5, #0]
		pxTopOfStack = pxNewTCB->pxStack + ( ulStackDepth - ( uint32_t ) 1 );
 8001b70:	6b23      	ldr	r3, [r4, #48]	; 0x30
		pxNewTCB->pcTaskName[ x ] = pcName[ x ];
 8001b72:	f884 2034 	strb.w	r2, [r4, #52]	; 0x34
		pxTopOfStack = pxNewTCB->pxStack + ( ulStackDepth - ( uint32_t ) 1 );
 8001b76:	3e04      	subs	r6, #4
		if( pcName[ x ] == 0x00 )
 8001b78:	782a      	ldrb	r2, [r5, #0]
		pxTopOfStack = pxNewTCB->pxStack + ( ulStackDepth - ( uint32_t ) 1 );
 8001b7a:	441e      	add	r6, r3
		pxTopOfStack = ( StackType_t * ) ( ( ( portPOINTER_SIZE_TYPE ) pxTopOfStack ) & ( ~( ( portPOINTER_SIZE_TYPE ) portBYTE_ALIGNMENT_MASK ) ) ); /*lint !e923 MISRA exception.  Avoiding casts between pointers and integers is not practical.  Size differences accounted for using portPOINTER_SIZE_TYPE type. */
 8001b7c:	f026 0a07 	bic.w	sl, r6, #7
		if( pcName[ x ] == 0x00 )
 8001b80:	2a00      	cmp	r2, #0
 8001b82:	d04d      	beq.n	8001c20 <xTaskCreate+0xf0>
		pxNewTCB->pcTaskName[ x ] = pcName[ x ];
 8001b84:	786b      	ldrb	r3, [r5, #1]
 8001b86:	f884 3035 	strb.w	r3, [r4, #53]	; 0x35
		if( pcName[ x ] == 0x00 )
 8001b8a:	786b      	ldrb	r3, [r5, #1]
 8001b8c:	2b00      	cmp	r3, #0
 8001b8e:	d047      	beq.n	8001c20 <xTaskCreate+0xf0>
		pxNewTCB->pcTaskName[ x ] = pcName[ x ];
 8001b90:	78ab      	ldrb	r3, [r5, #2]
 8001b92:	f884 3036 	strb.w	r3, [r4, #54]	; 0x36
		if( pcName[ x ] == 0x00 )
 8001b96:	78ab      	ldrb	r3, [r5, #2]
 8001b98:	2b00      	cmp	r3, #0
 8001b9a:	d041      	beq.n	8001c20 <xTaskCreate+0xf0>
		pxNewTCB->pcTaskName[ x ] = pcName[ x ];
 8001b9c:	78eb      	ldrb	r3, [r5, #3]
 8001b9e:	f884 3037 	strb.w	r3, [r4, #55]	; 0x37
		if( pcName[ x ] == 0x00 )
 8001ba2:	78eb      	ldrb	r3, [r5, #3]
 8001ba4:	2b00      	cmp	r3, #0
 8001ba6:	d03b      	beq.n	8001c20 <xTaskCreate+0xf0>
		pxNewTCB->pcTaskName[ x ] = pcName[ x ];
 8001ba8:	792b      	ldrb	r3, [r5, #4]
 8001baa:	f884 3038 	strb.w	r3, [r4, #56]	; 0x38
		if( pcName[ x ] == 0x00 )
 8001bae:	792b      	ldrb	r3, [r5, #4]
 8001bb0:	2b00      	cmp	r3, #0
 8001bb2:	d035      	beq.n	8001c20 <xTaskCreate+0xf0>
		pxNewTCB->pcTaskName[ x ] = pcName[ x ];
 8001bb4:	796b      	ldrb	r3, [r5, #5]
 8001bb6:	f884 3039 	strb.w	r3, [r4, #57]	; 0x39
		if( pcName[ x ] == 0x00 )
 8001bba:	796b      	ldrb	r3, [r5, #5]
 8001bbc:	2b00      	cmp	r3, #0
 8001bbe:	d02f      	beq.n	8001c20 <xTaskCreate+0xf0>
		pxNewTCB->pcTaskName[ x ] = pcName[ x ];
 8001bc0:	79ab      	ldrb	r3, [r5, #6]
 8001bc2:	f884 303a 	strb.w	r3, [r4, #58]	; 0x3a
		if( pcName[ x ] == 0x00 )
 8001bc6:	79ab      	ldrb	r3, [r5, #6]
 8001bc8:	b353      	cbz	r3, 8001c20 <xTaskCreate+0xf0>
		pxNewTCB->pcTaskName[ x ] = pcName[ x ];
 8001bca:	79eb      	ldrb	r3, [r5, #7]
 8001bcc:	f884 303b 	strb.w	r3, [r4, #59]	; 0x3b
		if( pcName[ x ] == 0x00 )
 8001bd0:	79eb      	ldrb	r3, [r5, #7]
 8001bd2:	b32b      	cbz	r3, 8001c20 <xTaskCreate+0xf0>
		pxNewTCB->pcTaskName[ x ] = pcName[ x ];
 8001bd4:	7a2b      	ldrb	r3, [r5, #8]
 8001bd6:	f884 303c 	strb.w	r3, [r4, #60]	; 0x3c
		if( pcName[ x ] == 0x00 )
 8001bda:	7a2b      	ldrb	r3, [r5, #8]
 8001bdc:	b303      	cbz	r3, 8001c20 <xTaskCreate+0xf0>
		pxNewTCB->pcTaskName[ x ] = pcName[ x ];
 8001bde:	7a6b      	ldrb	r3, [r5, #9]
 8001be0:	f884 303d 	strb.w	r3, [r4, #61]	; 0x3d
		if( pcName[ x ] == 0x00 )
 8001be4:	7a6b      	ldrb	r3, [r5, #9]
 8001be6:	b1db      	cbz	r3, 8001c20 <xTaskCreate+0xf0>
		pxNewTCB->pcTaskName[ x ] = pcName[ x ];
 8001be8:	7aab      	ldrb	r3, [r5, #10]
 8001bea:	f884 303e 	strb.w	r3, [r4, #62]	; 0x3e
		if( pcName[ x ] == 0x00 )
 8001bee:	7aab      	ldrb	r3, [r5, #10]
 8001bf0:	b1b3      	cbz	r3, 8001c20 <xTaskCreate+0xf0>
		pxNewTCB->pcTaskName[ x ] = pcName[ x ];
 8001bf2:	7aeb      	ldrb	r3, [r5, #11]
 8001bf4:	f884 303f 	strb.w	r3, [r4, #63]	; 0x3f
		if( pcName[ x ] == 0x00 )
 8001bf8:	7aeb      	ldrb	r3, [r5, #11]
 8001bfa:	b18b      	cbz	r3, 8001c20 <xTaskCreate+0xf0>
		pxNewTCB->pcTaskName[ x ] = pcName[ x ];
 8001bfc:	7b2b      	ldrb	r3, [r5, #12]
 8001bfe:	f884 3040 	strb.w	r3, [r4, #64]	; 0x40
		if( pcName[ x ] == 0x00 )
 8001c02:	7b2b      	ldrb	r3, [r5, #12]
 8001c04:	b163      	cbz	r3, 8001c20 <xTaskCreate+0xf0>
		pxNewTCB->pcTaskName[ x ] = pcName[ x ];
 8001c06:	7b6b      	ldrb	r3, [r5, #13]
 8001c08:	f884 3041 	strb.w	r3, [r4, #65]	; 0x41
		if( pcName[ x ] == 0x00 )
 8001c0c:	7b6b      	ldrb	r3, [r5, #13]
 8001c0e:	b13b      	cbz	r3, 8001c20 <xTaskCreate+0xf0>
		pxNewTCB->pcTaskName[ x ] = pcName[ x ];
 8001c10:	7bab      	ldrb	r3, [r5, #14]
 8001c12:	f884 3042 	strb.w	r3, [r4, #66]	; 0x42
		if( pcName[ x ] == 0x00 )
 8001c16:	7bab      	ldrb	r3, [r5, #14]
 8001c18:	b113      	cbz	r3, 8001c20 <xTaskCreate+0xf0>
		pxNewTCB->pcTaskName[ x ] = pcName[ x ];
 8001c1a:	7beb      	ldrb	r3, [r5, #15]
 8001c1c:	f884 3043 	strb.w	r3, [r4, #67]	; 0x43
 8001c20:	9d08      	ldr	r5, [sp, #32]
	pxNewTCB->pcTaskName[ configMAX_TASK_NAME_LEN - 1 ] = '\0';
 8001c22:	2600      	movs	r6, #0
 8001c24:	2d37      	cmp	r5, #55	; 0x37
 8001c26:	bf28      	it	cs
 8001c28:	2537      	movcs	r5, #55	; 0x37
	vListInitialiseItem( &( pxNewTCB->xStateListItem ) );
 8001c2a:	1d20      	adds	r0, r4, #4
	pxNewTCB->uxPriority = uxPriority;
 8001c2c:	62e5      	str	r5, [r4, #44]	; 0x2c
		pxNewTCB->uxBasePriority = uxPriority;
 8001c2e:	64e5      	str	r5, [r4, #76]	; 0x4c
	pxNewTCB->pcTaskName[ configMAX_TASK_NAME_LEN - 1 ] = '\0';
 8001c30:	f884 6043 	strb.w	r6, [r4, #67]	; 0x43
		pxNewTCB->uxMutexesHeld = 0;
 8001c34:	6526      	str	r6, [r4, #80]	; 0x50
	vListInitialiseItem( &( pxNewTCB->xStateListItem ) );
 8001c36:	f7ff f951 	bl	8000edc <vListInitialiseItem>
	listSET_LIST_ITEM_VALUE( &( pxNewTCB->xEventListItem ), ( TickType_t ) configMAX_PRIORITIES - ( TickType_t ) uxPriority ); /*lint !e961 MISRA exception as the casts are only redundant for some ports. */
 8001c3a:	f1c5 0538 	rsb	r5, r5, #56	; 0x38
	vListInitialiseItem( &( pxNewTCB->xEventListItem ) );
 8001c3e:	f104 0018 	add.w	r0, r4, #24
 8001c42:	f7ff f94b 	bl	8000edc <vListInitialiseItem>
		pxNewTCB->ulNotifiedValue = 0;
 8001c46:	6566      	str	r6, [r4, #84]	; 0x54
	listSET_LIST_ITEM_VALUE( &( pxNewTCB->xEventListItem ), ( TickType_t ) configMAX_PRIORITIES - ( TickType_t ) uxPriority ); /*lint !e961 MISRA exception as the casts are only redundant for some ports. */
 8001c48:	61a5      	str	r5, [r4, #24]
	listSET_LIST_ITEM_OWNER( &( pxNewTCB->xStateListItem ), pxNewTCB );
 8001c4a:	6124      	str	r4, [r4, #16]
		pxNewTCB->ucNotifyState = taskNOT_WAITING_NOTIFICATION;
 8001c4c:	f884 6058 	strb.w	r6, [r4, #88]	; 0x58
	listSET_LIST_ITEM_OWNER( &( pxNewTCB->xEventListItem ), pxNewTCB );
 8001c50:	6264      	str	r4, [r4, #36]	; 0x24
		pxNewTCB->pxTopOfStack = pxPortInitialiseStack( pxTopOfStack, pxTaskCode, pvParameters );
 8001c52:	464a      	mov	r2, r9
 8001c54:	4641      	mov	r1, r8
 8001c56:	4650      	mov	r0, sl
 8001c58:	f000 fda6 	bl	80027a8 <pxPortInitialiseStack>
 8001c5c:	6020      	str	r0, [r4, #0]
	if( ( void * ) pxCreatedTask != NULL )
 8001c5e:	b107      	cbz	r7, 8001c62 <xTaskCreate+0x132>
		*pxCreatedTask = ( TaskHandle_t ) pxNewTCB;
 8001c60:	603c      	str	r4, [r7, #0]
			prvAddNewTaskToReadyList( pxNewTCB );
 8001c62:	4620      	mov	r0, r4
 8001c64:	f7ff fdd2 	bl	800180c <prvAddNewTaskToReadyList>
			xReturn = pdPASS;
 8001c68:	2001      	movs	r0, #1
	}
 8001c6a:	e8bd 87f0 	ldmia.w	sp!, {r4, r5, r6, r7, r8, r9, sl, pc}
					vPortFree( pxStack );
 8001c6e:	4650      	mov	r0, sl
 8001c70:	f000 ff64 	bl	8002b3c <vPortFree>
			xReturn = errCOULD_NOT_ALLOCATE_REQUIRED_MEMORY;
 8001c74:	f04f 30ff 	mov.w	r0, #4294967295
	}
 8001c78:	e8bd 87f0 	ldmia.w	sp!, {r4, r5, r6, r7, r8, r9, sl, pc}
			xReturn = errCOULD_NOT_ALLOCATE_REQUIRED_MEMORY;
 8001c7c:	f04f 30ff 	mov.w	r0, #4294967295
		return xReturn;
 8001c80:	e7f3      	b.n	8001c6a <xTaskCreate+0x13a>
 8001c82:	bf00      	nop

08001c84 <vTaskStartScheduler>:
{
 8001c84:	b530      	push	{r4, r5, lr}
		StaticTask_t *pxIdleTaskTCBBuffer = NULL;
 8001c86:	2400      	movs	r4, #0
{
 8001c88:	b08b      	sub	sp, #44	; 0x2c
		vApplicationGetIdleTaskMemory( &pxIdleTaskTCBBuffer, &pxIdleTaskStackBuffer, &ulIdleTaskStackSize );
 8001c8a:	aa07      	add	r2, sp, #28
 8001c8c:	a906      	add	r1, sp, #24
 8001c8e:	a805      	add	r0, sp, #20
		StackType_t *pxIdleTaskStackBuffer = NULL;
 8001c90:	e9cd 4405 	strd	r4, r4, [sp, #20]
		vApplicationGetIdleTaskMemory( &pxIdleTaskTCBBuffer, &pxIdleTaskStackBuffer, &ulIdleTaskStackSize );
 8001c94:	f7ff f8fa 	bl	8000e8c <vApplicationGetIdleTaskMemory>
		xIdleTaskHandle = xTaskCreateStatic(	prvIdleTask,
 8001c98:	e9dd 5305 	ldrd	r5, r3, [sp, #20]
		configASSERT( puxStackBuffer != NULL );
 8001c9c:	b1c3      	cbz	r3, 8001cd0 <vTaskStartScheduler+0x4c>
		configASSERT( pxTaskBuffer != NULL );
 8001c9e:	b175      	cbz	r5, 8001cbe <vTaskStartScheduler+0x3a>
			volatile size_t xSize = sizeof( StaticTask_t );
 8001ca0:	225c      	movs	r2, #92	; 0x5c
 8001ca2:	9208      	str	r2, [sp, #32]
			configASSERT( xSize == sizeof( TCB_t ) );
 8001ca4:	9908      	ldr	r1, [sp, #32]
		xIdleTaskHandle = xTaskCreateStatic(	prvIdleTask,
 8001ca6:	9a07      	ldr	r2, [sp, #28]
			configASSERT( xSize == sizeof( TCB_t ) );
 8001ca8:	295c      	cmp	r1, #92	; 0x5c
 8001caa:	d01a      	beq.n	8001ce2 <vTaskStartScheduler+0x5e>
 8001cac:	f04f 0350 	mov.w	r3, #80	; 0x50
 8001cb0:	f383 8811 	msr	BASEPRI, r3
 8001cb4:	f3bf 8f6f 	isb	sy
 8001cb8:	f3bf 8f4f 	dsb	sy
 8001cbc:	e7fe      	b.n	8001cbc <vTaskStartScheduler+0x38>
 8001cbe:	f04f 0350 	mov.w	r3, #80	; 0x50
 8001cc2:	f383 8811 	msr	BASEPRI, r3
 8001cc6:	f3bf 8f6f 	isb	sy
 8001cca:	f3bf 8f4f 	dsb	sy
 8001cce:	e7fe      	b.n	8001cce <vTaskStartScheduler+0x4a>
 8001cd0:	f04f 0350 	mov.w	r3, #80	; 0x50
 8001cd4:	f383 8811 	msr	BASEPRI, r3
 8001cd8:	f3bf 8f6f 	isb	sy
 8001cdc:	f3bf 8f4f 	dsb	sy
 8001ce0:	e7fe      	b.n	8001ce0 <vTaskStartScheduler+0x5c>
				pxNewTCB->ucStaticallyAllocated = tskSTATICALLY_ALLOCATED_STACK_AND_TCB;
 8001ce2:	2002      	movs	r0, #2
			prvInitialiseNewTask( pxTaskCode, pcName, ulStackDepth, pvParameters, uxPriority, &xReturn, pxNewTCB, NULL );
 8001ce4:	a909      	add	r1, sp, #36	; 0x24
			pxNewTCB->pxStack = ( StackType_t * ) puxStackBuffer;
 8001ce6:	632b      	str	r3, [r5, #48]	; 0x30
				pxNewTCB->ucStaticallyAllocated = tskSTATICALLY_ALLOCATED_STACK_AND_TCB;
 8001ce8:	f885 0059 	strb.w	r0, [r5, #89]	; 0x59
			prvInitialiseNewTask( pxTaskCode, pcName, ulStackDepth, pvParameters, uxPriority, &xReturn, pxNewTCB, NULL );
 8001cec:	4623      	mov	r3, r4
 8001cee:	e9cd 4100 	strd	r4, r1, [sp]
 8001cf2:	4817      	ldr	r0, [pc, #92]	; (8001d50 <vTaskStartScheduler+0xcc>)
 8001cf4:	4917      	ldr	r1, [pc, #92]	; (8001d54 <vTaskStartScheduler+0xd0>)
 8001cf6:	9502      	str	r5, [sp, #8]
 8001cf8:	f7ff fe10 	bl	800191c <prvInitialiseNewTask.isra.2>
			prvAddNewTaskToReadyList( pxNewTCB );
 8001cfc:	4628      	mov	r0, r5
 8001cfe:	f7ff fd85 	bl	800180c <prvAddNewTaskToReadyList>
		return xReturn;
 8001d02:	9b09      	ldr	r3, [sp, #36]	; 0x24
		if( xIdleTaskHandle != NULL )
 8001d04:	b12b      	cbz	r3, 8001d12 <vTaskStartScheduler+0x8e>
			xReturn = xTimerCreateTimerTask();
 8001d06:	f000 fcc1 	bl	800268c <xTimerCreateTimerTask>
	if( xReturn == pdPASS )
 8001d0a:	2801      	cmp	r0, #1
 8001d0c:	d00c      	beq.n	8001d28 <vTaskStartScheduler+0xa4>
		configASSERT( xReturn != errCOULD_NOT_ALLOCATE_REQUIRED_MEMORY );
 8001d0e:	3001      	adds	r0, #1
 8001d10:	d001      	beq.n	8001d16 <vTaskStartScheduler+0x92>
}
 8001d12:	b00b      	add	sp, #44	; 0x2c
 8001d14:	bd30      	pop	{r4, r5, pc}
 8001d16:	f04f 0350 	mov.w	r3, #80	; 0x50
 8001d1a:	f383 8811 	msr	BASEPRI, r3
 8001d1e:	f3bf 8f6f 	isb	sy
 8001d22:	f3bf 8f4f 	dsb	sy
 8001d26:	e7fe      	b.n	8001d26 <vTaskStartScheduler+0xa2>
 8001d28:	f04f 0350 	mov.w	r3, #80	; 0x50
 8001d2c:	f383 8811 	msr	BASEPRI, r3
 8001d30:	f3bf 8f6f 	isb	sy
 8001d34:	f3bf 8f4f 	dsb	sy
		xNextTaskUnblockTime = portMAX_DELAY;
 8001d38:	f04f 35ff 	mov.w	r5, #4294967295
 8001d3c:	4906      	ldr	r1, [pc, #24]	; (8001d58 <vTaskStartScheduler+0xd4>)
		xSchedulerRunning = pdTRUE;
 8001d3e:	4a07      	ldr	r2, [pc, #28]	; (8001d5c <vTaskStartScheduler+0xd8>)
		xTickCount = ( TickType_t ) 0U;
 8001d40:	4b07      	ldr	r3, [pc, #28]	; (8001d60 <vTaskStartScheduler+0xdc>)
		xNextTaskUnblockTime = portMAX_DELAY;
 8001d42:	600d      	str	r5, [r1, #0]
		xSchedulerRunning = pdTRUE;
 8001d44:	6010      	str	r0, [r2, #0]
		xTickCount = ( TickType_t ) 0U;
 8001d46:	601c      	str	r4, [r3, #0]
		if( xPortStartScheduler() != pdFALSE )
 8001d48:	f000 fde0 	bl	800290c <xPortStartScheduler>
 8001d4c:	e7e1      	b.n	8001d12 <vTaskStartScheduler+0x8e>
 8001d4e:	bf00      	nop
 8001d50:	08001a21 	.word	0x08001a21
 8001d54:	08002ce4 	.word	0x08002ce4
 8001d58:	20000b98 	.word	0x20000b98
 8001d5c:	20000bb4 	.word	0x20000bb4
 8001d60:	20000be0 	.word	0x20000be0

08001d64 <vTaskSuspendAll>:
	++uxSchedulerSuspended;
 8001d64:	4a02      	ldr	r2, [pc, #8]	; (8001d70 <vTaskSuspendAll+0xc>)
 8001d66:	6813      	ldr	r3, [r2, #0]
 8001d68:	3301      	adds	r3, #1
 8001d6a:	6013      	str	r3, [r2, #0]
}
 8001d6c:	4770      	bx	lr
 8001d6e:	bf00      	nop
 8001d70:	20000b64 	.word	0x20000b64

08001d74 <xTaskGetTickCount>:
		xTicks = xTickCount;
 8001d74:	4b01      	ldr	r3, [pc, #4]	; (8001d7c <xTaskGetTickCount+0x8>)
 8001d76:	6818      	ldr	r0, [r3, #0]
}
 8001d78:	4770      	bx	lr
 8001d7a:	bf00      	nop
 8001d7c:	20000be0 	.word	0x20000be0

08001d80 <xTaskIncrementTick>:
{
 8001d80:	e92d 4ff8 	stmdb	sp!, {r3, r4, r5, r6, r7, r8, r9, sl, fp, lr}
	if( uxSchedulerSuspended == ( UBaseType_t ) pdFALSE )
 8001d84:	4b45      	ldr	r3, [pc, #276]	; (8001e9c <xTaskIncrementTick+0x11c>)
 8001d86:	681b      	ldr	r3, [r3, #0]
 8001d88:	b9cb      	cbnz	r3, 8001dbe <xTaskIncrementTick+0x3e>
		const TickType_t xConstTickCount = xTickCount + ( TickType_t ) 1;
 8001d8a:	4b45      	ldr	r3, [pc, #276]	; (8001ea0 <xTaskIncrementTick+0x120>)
 8001d8c:	681f      	ldr	r7, [r3, #0]
 8001d8e:	3701      	adds	r7, #1
		xTickCount = xConstTickCount;
 8001d90:	601f      	str	r7, [r3, #0]
		if( xConstTickCount == ( TickType_t ) 0U ) /*lint !e774 'if' does not always evaluate to false as it is looking for an overflow. */
 8001d92:	b30f      	cbz	r7, 8001dd8 <xTaskIncrementTick+0x58>
 8001d94:	4e43      	ldr	r6, [pc, #268]	; (8001ea4 <xTaskIncrementTick+0x124>)
		if( xConstTickCount >= xNextTaskUnblockTime )
 8001d96:	6833      	ldr	r3, [r6, #0]
BaseType_t xSwitchRequired = pdFALSE;
 8001d98:	2500      	movs	r5, #0
		if( xConstTickCount >= xNextTaskUnblockTime )
 8001d9a:	42bb      	cmp	r3, r7
 8001d9c:	d92a      	bls.n	8001df4 <xTaskIncrementTick+0x74>
 8001d9e:	f8df 8120 	ldr.w	r8, [pc, #288]	; 8001ec0 <xTaskIncrementTick+0x140>
 8001da2:	f8df 9120 	ldr.w	r9, [pc, #288]	; 8001ec4 <xTaskIncrementTick+0x144>
			if( listCURRENT_LIST_LENGTH( &( pxReadyTasksLists[ pxCurrentTCB->uxPriority ] ) ) > ( UBaseType_t ) 1 )
 8001da6:	f8d9 3000 	ldr.w	r3, [r9]
 8001daa:	6adb      	ldr	r3, [r3, #44]	; 0x2c
 8001dac:	eb03 0383 	add.w	r3, r3, r3, lsl #2
 8001db0:	009b      	lsls	r3, r3, #2
 8001db2:	f858 3003 	ldr.w	r3, [r8, r3]
				xSwitchRequired = pdTRUE;
 8001db6:	2b02      	cmp	r3, #2
 8001db8:	bf28      	it	cs
 8001dba:	2501      	movcs	r5, #1
 8001dbc:	e004      	b.n	8001dc8 <xTaskIncrementTick+0x48>
BaseType_t xSwitchRequired = pdFALSE;
 8001dbe:	2500      	movs	r5, #0
		++uxPendedTicks;
 8001dc0:	4a39      	ldr	r2, [pc, #228]	; (8001ea8 <xTaskIncrementTick+0x128>)
 8001dc2:	6813      	ldr	r3, [r2, #0]
 8001dc4:	3301      	adds	r3, #1
 8001dc6:	6013      	str	r3, [r2, #0]
		if( xYieldPending != pdFALSE )
 8001dc8:	4b38      	ldr	r3, [pc, #224]	; (8001eac <xTaskIncrementTick+0x12c>)
 8001dca:	681b      	ldr	r3, [r3, #0]
			xSwitchRequired = pdTRUE;
 8001dcc:	2b00      	cmp	r3, #0
}
 8001dce:	bf0c      	ite	eq
 8001dd0:	4628      	moveq	r0, r5
 8001dd2:	2001      	movne	r0, #1
 8001dd4:	e8bd 8ff8 	ldmia.w	sp!, {r3, r4, r5, r6, r7, r8, r9, sl, fp, pc}
			taskSWITCH_DELAYED_LISTS();
 8001dd8:	4c35      	ldr	r4, [pc, #212]	; (8001eb0 <xTaskIncrementTick+0x130>)
 8001dda:	6823      	ldr	r3, [r4, #0]
 8001ddc:	681b      	ldr	r3, [r3, #0]
 8001dde:	2b00      	cmp	r3, #0
 8001de0:	d044      	beq.n	8001e6c <xTaskIncrementTick+0xec>
 8001de2:	f04f 0350 	mov.w	r3, #80	; 0x50
 8001de6:	f383 8811 	msr	BASEPRI, r3
 8001dea:	f3bf 8f6f 	isb	sy
 8001dee:	f3bf 8f4f 	dsb	sy
 8001df2:	e7fe      	b.n	8001df2 <xTaskIncrementTick+0x72>
 8001df4:	4c2e      	ldr	r4, [pc, #184]	; (8001eb0 <xTaskIncrementTick+0x130>)
 8001df6:	f8df 80c8 	ldr.w	r8, [pc, #200]	; 8001ec0 <xTaskIncrementTick+0x140>
 8001dfa:	f8df 90c8 	ldr.w	r9, [pc, #200]	; 8001ec4 <xTaskIncrementTick+0x144>
 8001dfe:	e02b      	b.n	8001e58 <xTaskIncrementTick+0xd8>
					pxTCB = ( TCB_t * ) listGET_OWNER_OF_HEAD_ENTRY( pxDelayedTaskList );
 8001e00:	6823      	ldr	r3, [r4, #0]
 8001e02:	68db      	ldr	r3, [r3, #12]
 8001e04:	f8d3 a00c 	ldr.w	sl, [r3, #12]
					xItemValue = listGET_LIST_ITEM_VALUE( &( pxTCB->xStateListItem ) );
 8001e08:	f8da 2004 	ldr.w	r2, [sl, #4]
					( void ) uxListRemove( &( pxTCB->xStateListItem ) );
 8001e0c:	f10a 0b04 	add.w	fp, sl, #4
					if( xConstTickCount < xItemValue )
 8001e10:	4297      	cmp	r7, r2
 8001e12:	d329      	bcc.n	8001e68 <xTaskIncrementTick+0xe8>
					( void ) uxListRemove( &( pxTCB->xStateListItem ) );
 8001e14:	4658      	mov	r0, fp
 8001e16:	f7ff f88d 	bl	8000f34 <uxListRemove>
					if( listLIST_ITEM_CONTAINER( &( pxTCB->xEventListItem ) ) != NULL )
 8001e1a:	f8da 2028 	ldr.w	r2, [sl, #40]	; 0x28
						( void ) uxListRemove( &( pxTCB->xEventListItem ) );
 8001e1e:	f10a 0018 	add.w	r0, sl, #24
					if( listLIST_ITEM_CONTAINER( &( pxTCB->xEventListItem ) ) != NULL )
 8001e22:	b10a      	cbz	r2, 8001e28 <xTaskIncrementTick+0xa8>
						( void ) uxListRemove( &( pxTCB->xEventListItem ) );
 8001e24:	f7ff f886 	bl	8000f34 <uxListRemove>
					prvAddTaskToReadyList( pxTCB );
 8001e28:	4b22      	ldr	r3, [pc, #136]	; (8001eb4 <xTaskIncrementTick+0x134>)
 8001e2a:	f8da 202c 	ldr.w	r2, [sl, #44]	; 0x2c
 8001e2e:	681b      	ldr	r3, [r3, #0]
 8001e30:	eb02 0082 	add.w	r0, r2, r2, lsl #2
 8001e34:	429a      	cmp	r2, r3
 8001e36:	bf88      	it	hi
 8001e38:	4b1e      	ldrhi	r3, [pc, #120]	; (8001eb4 <xTaskIncrementTick+0x134>)
 8001e3a:	4659      	mov	r1, fp
 8001e3c:	eb08 0080 	add.w	r0, r8, r0, lsl #2
 8001e40:	bf88      	it	hi
 8001e42:	601a      	strhi	r2, [r3, #0]
 8001e44:	f7ff f84e 	bl	8000ee4 <vListInsertEnd>
						if( pxTCB->uxPriority >= pxCurrentTCB->uxPriority )
 8001e48:	f8d9 1000 	ldr.w	r1, [r9]
 8001e4c:	f8da 202c 	ldr.w	r2, [sl, #44]	; 0x2c
 8001e50:	6acb      	ldr	r3, [r1, #44]	; 0x2c
							xSwitchRequired = pdTRUE;
 8001e52:	429a      	cmp	r2, r3
 8001e54:	bf28      	it	cs
 8001e56:	2501      	movcs	r5, #1
				if( listLIST_IS_EMPTY( pxDelayedTaskList ) != pdFALSE )
 8001e58:	6823      	ldr	r3, [r4, #0]
 8001e5a:	681b      	ldr	r3, [r3, #0]
 8001e5c:	2b00      	cmp	r3, #0
 8001e5e:	d1cf      	bne.n	8001e00 <xTaskIncrementTick+0x80>
					xNextTaskUnblockTime = portMAX_DELAY; /*lint !e961 MISRA exception as the casts are only redundant for some ports. */
 8001e60:	f04f 33ff 	mov.w	r3, #4294967295
 8001e64:	6033      	str	r3, [r6, #0]
					break;
 8001e66:	e79e      	b.n	8001da6 <xTaskIncrementTick+0x26>
						xNextTaskUnblockTime = xItemValue;
 8001e68:	6032      	str	r2, [r6, #0]
						break;
 8001e6a:	e79c      	b.n	8001da6 <xTaskIncrementTick+0x26>
			taskSWITCH_DELAYED_LISTS();
 8001e6c:	4b12      	ldr	r3, [pc, #72]	; (8001eb8 <xTaskIncrementTick+0x138>)
 8001e6e:	6821      	ldr	r1, [r4, #0]
 8001e70:	6818      	ldr	r0, [r3, #0]
 8001e72:	4a12      	ldr	r2, [pc, #72]	; (8001ebc <xTaskIncrementTick+0x13c>)
 8001e74:	6020      	str	r0, [r4, #0]
 8001e76:	6019      	str	r1, [r3, #0]
 8001e78:	6813      	ldr	r3, [r2, #0]
 8001e7a:	3301      	adds	r3, #1
 8001e7c:	6013      	str	r3, [r2, #0]
	if( listLIST_IS_EMPTY( pxDelayedTaskList ) != pdFALSE )
 8001e7e:	6823      	ldr	r3, [r4, #0]
 8001e80:	681b      	ldr	r3, [r3, #0]
 8001e82:	b923      	cbnz	r3, 8001e8e <xTaskIncrementTick+0x10e>
		xNextTaskUnblockTime = portMAX_DELAY;
 8001e84:	f04f 33ff 	mov.w	r3, #4294967295
 8001e88:	4e06      	ldr	r6, [pc, #24]	; (8001ea4 <xTaskIncrementTick+0x124>)
 8001e8a:	6033      	str	r3, [r6, #0]
 8001e8c:	e783      	b.n	8001d96 <xTaskIncrementTick+0x16>
		( pxTCB ) = ( TCB_t * ) listGET_OWNER_OF_HEAD_ENTRY( pxDelayedTaskList );
 8001e8e:	6823      	ldr	r3, [r4, #0]
		xNextTaskUnblockTime = listGET_LIST_ITEM_VALUE( &( ( pxTCB )->xStateListItem ) );
 8001e90:	4e04      	ldr	r6, [pc, #16]	; (8001ea4 <xTaskIncrementTick+0x124>)
		( pxTCB ) = ( TCB_t * ) listGET_OWNER_OF_HEAD_ENTRY( pxDelayedTaskList );
 8001e92:	68db      	ldr	r3, [r3, #12]
		xNextTaskUnblockTime = listGET_LIST_ITEM_VALUE( &( ( pxTCB )->xStateListItem ) );
 8001e94:	68db      	ldr	r3, [r3, #12]
 8001e96:	685b      	ldr	r3, [r3, #4]
 8001e98:	6033      	str	r3, [r6, #0]
 8001e9a:	e77c      	b.n	8001d96 <xTaskIncrementTick+0x16>
 8001e9c:	20000b64 	.word	0x20000b64
 8001ea0:	20000be0 	.word	0x20000be0
 8001ea4:	20000b98 	.word	0x20000b98
 8001ea8:	20000b60 	.word	0x20000b60
 8001eac:	20000be4 	.word	0x20000be4
 8001eb0:	200006f0 	.word	0x200006f0
 8001eb4:	20000b6c 	.word	0x20000b6c
 8001eb8:	200006f4 	.word	0x200006f4
 8001ebc:	20000b9c 	.word	0x20000b9c
 8001ec0:	200006f8 	.word	0x200006f8
 8001ec4:	200006ec 	.word	0x200006ec

08001ec8 <xTaskResumeAll>:
{
 8001ec8:	e92d 47f0 	stmdb	sp!, {r4, r5, r6, r7, r8, r9, sl, lr}
	configASSERT( uxSchedulerSuspended );
 8001ecc:	4c36      	ldr	r4, [pc, #216]	; (8001fa8 <xTaskResumeAll+0xe0>)
 8001ece:	6823      	ldr	r3, [r4, #0]
 8001ed0:	b943      	cbnz	r3, 8001ee4 <xTaskResumeAll+0x1c>
 8001ed2:	f04f 0350 	mov.w	r3, #80	; 0x50
 8001ed6:	f383 8811 	msr	BASEPRI, r3
 8001eda:	f3bf 8f6f 	isb	sy
 8001ede:	f3bf 8f4f 	dsb	sy
 8001ee2:	e7fe      	b.n	8001ee2 <xTaskResumeAll+0x1a>
	taskENTER_CRITICAL();
 8001ee4:	f000 fc86 	bl	80027f4 <vPortEnterCritical>
		--uxSchedulerSuspended;
 8001ee8:	6823      	ldr	r3, [r4, #0]
 8001eea:	3b01      	subs	r3, #1
 8001eec:	6023      	str	r3, [r4, #0]
		if( uxSchedulerSuspended == ( UBaseType_t ) pdFALSE )
 8001eee:	6824      	ldr	r4, [r4, #0]
 8001ef0:	bb5c      	cbnz	r4, 8001f4a <xTaskResumeAll+0x82>
			if( uxCurrentNumberOfTasks > ( UBaseType_t ) 0U )
 8001ef2:	4b2e      	ldr	r3, [pc, #184]	; (8001fac <xTaskResumeAll+0xe4>)
 8001ef4:	681b      	ldr	r3, [r3, #0]
 8001ef6:	b343      	cbz	r3, 8001f4a <xTaskResumeAll+0x82>
 8001ef8:	4e2d      	ldr	r6, [pc, #180]	; (8001fb0 <xTaskResumeAll+0xe8>)
 8001efa:	4f2e      	ldr	r7, [pc, #184]	; (8001fb4 <xTaskResumeAll+0xec>)
					prvAddTaskToReadyList( pxTCB );
 8001efc:	4d2e      	ldr	r5, [pc, #184]	; (8001fb8 <xTaskResumeAll+0xf0>)
 8001efe:	f8df a0cc 	ldr.w	sl, [pc, #204]	; 8001fcc <xTaskResumeAll+0x104>
					if( pxTCB->uxPriority >= pxCurrentTCB->uxPriority )
 8001f02:	f8df 90cc 	ldr.w	r9, [pc, #204]	; 8001fd0 <xTaskResumeAll+0x108>
				while( listLIST_IS_EMPTY( &xPendingReadyList ) == pdFALSE )
 8001f06:	683b      	ldr	r3, [r7, #0]
 8001f08:	b32b      	cbz	r3, 8001f56 <xTaskResumeAll+0x8e>
					pxTCB = ( TCB_t * ) listGET_OWNER_OF_HEAD_ENTRY( ( &xPendingReadyList ) );
 8001f0a:	68fb      	ldr	r3, [r7, #12]
 8001f0c:	68dc      	ldr	r4, [r3, #12]
					( void ) uxListRemove( &( pxTCB->xStateListItem ) );
 8001f0e:	f104 0804 	add.w	r8, r4, #4
					( void ) uxListRemove( &( pxTCB->xEventListItem ) );
 8001f12:	f104 0018 	add.w	r0, r4, #24
 8001f16:	f7ff f80d 	bl	8000f34 <uxListRemove>
					( void ) uxListRemove( &( pxTCB->xStateListItem ) );
 8001f1a:	4640      	mov	r0, r8
 8001f1c:	f7ff f80a 	bl	8000f34 <uxListRemove>
					prvAddTaskToReadyList( pxTCB );
 8001f20:	6ae3      	ldr	r3, [r4, #44]	; 0x2c
 8001f22:	682a      	ldr	r2, [r5, #0]
 8001f24:	eb03 0083 	add.w	r0, r3, r3, lsl #2
 8001f28:	4293      	cmp	r3, r2
 8001f2a:	4641      	mov	r1, r8
 8001f2c:	eb0a 0080 	add.w	r0, sl, r0, lsl #2
 8001f30:	bf88      	it	hi
 8001f32:	602b      	strhi	r3, [r5, #0]
 8001f34:	f7fe ffd6 	bl	8000ee4 <vListInsertEnd>
					if( pxTCB->uxPriority >= pxCurrentTCB->uxPriority )
 8001f38:	f8d9 3000 	ldr.w	r3, [r9]
 8001f3c:	6ae2      	ldr	r2, [r4, #44]	; 0x2c
 8001f3e:	6adb      	ldr	r3, [r3, #44]	; 0x2c
 8001f40:	429a      	cmp	r2, r3
 8001f42:	d3e0      	bcc.n	8001f06 <xTaskResumeAll+0x3e>
						xYieldPending = pdTRUE;
 8001f44:	2301      	movs	r3, #1
 8001f46:	6033      	str	r3, [r6, #0]
 8001f48:	e7dd      	b.n	8001f06 <xTaskResumeAll+0x3e>
BaseType_t xAlreadyYielded = pdFALSE;
 8001f4a:	2400      	movs	r4, #0
	taskEXIT_CRITICAL();
 8001f4c:	f000 fc74 	bl	8002838 <vPortExitCritical>
}
 8001f50:	4620      	mov	r0, r4
 8001f52:	e8bd 87f0 	ldmia.w	sp!, {r4, r5, r6, r7, r8, r9, sl, pc}
				if( pxTCB != NULL )
 8001f56:	b13c      	cbz	r4, 8001f68 <xTaskResumeAll+0xa0>
	if( listLIST_IS_EMPTY( pxDelayedTaskList ) != pdFALSE )
 8001f58:	4b18      	ldr	r3, [pc, #96]	; (8001fbc <xTaskResumeAll+0xf4>)
 8001f5a:	681a      	ldr	r2, [r3, #0]
 8001f5c:	6812      	ldr	r2, [r2, #0]
 8001f5e:	b9da      	cbnz	r2, 8001f98 <xTaskResumeAll+0xd0>
		xNextTaskUnblockTime = portMAX_DELAY;
 8001f60:	f04f 32ff 	mov.w	r2, #4294967295
 8001f64:	4b16      	ldr	r3, [pc, #88]	; (8001fc0 <xTaskResumeAll+0xf8>)
 8001f66:	601a      	str	r2, [r3, #0]
					UBaseType_t uxPendedCounts = uxPendedTicks; /* Non-volatile copy. */
 8001f68:	4d16      	ldr	r5, [pc, #88]	; (8001fc4 <xTaskResumeAll+0xfc>)
 8001f6a:	682c      	ldr	r4, [r5, #0]
					if( uxPendedCounts > ( UBaseType_t ) 0U )
 8001f6c:	b13c      	cbz	r4, 8001f7e <xTaskResumeAll+0xb6>
								xYieldPending = pdTRUE;
 8001f6e:	2701      	movs	r7, #1
							if( xTaskIncrementTick() != pdFALSE )
 8001f70:	f7ff ff06 	bl	8001d80 <xTaskIncrementTick>
 8001f74:	b100      	cbz	r0, 8001f78 <xTaskResumeAll+0xb0>
								xYieldPending = pdTRUE;
 8001f76:	6037      	str	r7, [r6, #0]
						} while( uxPendedCounts > ( UBaseType_t ) 0U );
 8001f78:	3c01      	subs	r4, #1
 8001f7a:	d1f9      	bne.n	8001f70 <xTaskResumeAll+0xa8>
						uxPendedTicks = 0;
 8001f7c:	602c      	str	r4, [r5, #0]
				if( xYieldPending != pdFALSE )
 8001f7e:	6833      	ldr	r3, [r6, #0]
 8001f80:	2b00      	cmp	r3, #0
 8001f82:	d0e2      	beq.n	8001f4a <xTaskResumeAll+0x82>
					taskYIELD_IF_USING_PREEMPTION();
 8001f84:	f04f 5280 	mov.w	r2, #268435456	; 0x10000000
 8001f88:	4b0f      	ldr	r3, [pc, #60]	; (8001fc8 <xTaskResumeAll+0x100>)
 8001f8a:	601a      	str	r2, [r3, #0]
 8001f8c:	f3bf 8f4f 	dsb	sy
 8001f90:	f3bf 8f6f 	isb	sy
						xAlreadyYielded = pdTRUE;
 8001f94:	2401      	movs	r4, #1
 8001f96:	e7d9      	b.n	8001f4c <xTaskResumeAll+0x84>
		( pxTCB ) = ( TCB_t * ) listGET_OWNER_OF_HEAD_ENTRY( pxDelayedTaskList );
 8001f98:	681a      	ldr	r2, [r3, #0]
		xNextTaskUnblockTime = listGET_LIST_ITEM_VALUE( &( ( pxTCB )->xStateListItem ) );
 8001f9a:	4b09      	ldr	r3, [pc, #36]	; (8001fc0 <xTaskResumeAll+0xf8>)
		( pxTCB ) = ( TCB_t * ) listGET_OWNER_OF_HEAD_ENTRY( pxDelayedTaskList );
 8001f9c:	68d2      	ldr	r2, [r2, #12]
		xNextTaskUnblockTime = listGET_LIST_ITEM_VALUE( &( ( pxTCB )->xStateListItem ) );
 8001f9e:	68d2      	ldr	r2, [r2, #12]
 8001fa0:	6852      	ldr	r2, [r2, #4]
 8001fa2:	601a      	str	r2, [r3, #0]
 8001fa4:	e7e0      	b.n	8001f68 <xTaskResumeAll+0xa0>
 8001fa6:	bf00      	nop
 8001fa8:	20000b64 	.word	0x20000b64
 8001fac:	20000b58 	.word	0x20000b58
 8001fb0:	20000be4 	.word	0x20000be4
 8001fb4:	20000ba0 	.word	0x20000ba0
 8001fb8:	20000b6c 	.word	0x20000b6c
 8001fbc:	200006f0 	.word	0x200006f0
 8001fc0:	20000b98 	.word	0x20000b98
 8001fc4:	20000b60 	.word	0x20000b60
 8001fc8:	e000ed04 	.word	0xe000ed04
 8001fcc:	200006f8 	.word	0x200006f8
 8001fd0:	200006ec 	.word	0x200006ec

08001fd4 <vTaskDelay>:
	{
 8001fd4:	b508      	push	{r3, lr}
		if( xTicksToDelay > ( TickType_t ) 0U )
 8001fd6:	b198      	cbz	r0, 8002000 <vTaskDelay+0x2c>
			configASSERT( uxSchedulerSuspended == 0 );
 8001fd8:	4b0e      	ldr	r3, [pc, #56]	; (8002014 <vTaskDelay+0x40>)
 8001fda:	6819      	ldr	r1, [r3, #0]
 8001fdc:	b141      	cbz	r1, 8001ff0 <vTaskDelay+0x1c>
 8001fde:	f04f 0350 	mov.w	r3, #80	; 0x50
 8001fe2:	f383 8811 	msr	BASEPRI, r3
 8001fe6:	f3bf 8f6f 	isb	sy
 8001fea:	f3bf 8f4f 	dsb	sy
 8001fee:	e7fe      	b.n	8001fee <vTaskDelay+0x1a>
	++uxSchedulerSuspended;
 8001ff0:	681a      	ldr	r2, [r3, #0]
 8001ff2:	3201      	adds	r2, #1
 8001ff4:	601a      	str	r2, [r3, #0]
				prvAddCurrentTaskToDelayedList( xTicksToDelay, pdFALSE );
 8001ff6:	f7ff fcd9 	bl	80019ac <prvAddCurrentTaskToDelayedList>
			xAlreadyYielded = xTaskResumeAll();
 8001ffa:	f7ff ff65 	bl	8001ec8 <xTaskResumeAll>
		if( xAlreadyYielded == pdFALSE )
 8001ffe:	b938      	cbnz	r0, 8002010 <vTaskDelay+0x3c>
			portYIELD_WITHIN_API();
 8002000:	f04f 5280 	mov.w	r2, #268435456	; 0x10000000
 8002004:	4b04      	ldr	r3, [pc, #16]	; (8002018 <vTaskDelay+0x44>)
 8002006:	601a      	str	r2, [r3, #0]
 8002008:	f3bf 8f4f 	dsb	sy
 800200c:	f3bf 8f6f 	isb	sy
	}
 8002010:	bd08      	pop	{r3, pc}
 8002012:	bf00      	nop
 8002014:	20000b64 	.word	0x20000b64
 8002018:	e000ed04 	.word	0xe000ed04

0800201c <vTaskSwitchContext>:
	if( uxSchedulerSuspended != ( UBaseType_t ) pdFALSE )
 800201c:	4b1c      	ldr	r3, [pc, #112]	; (8002090 <vTaskSwitchContext+0x74>)
 800201e:	681b      	ldr	r3, [r3, #0]
 8002020:	bb13      	cbnz	r3, 8002068 <vTaskSwitchContext+0x4c>
		xYieldPending = pdFALSE;
 8002022:	4a1c      	ldr	r2, [pc, #112]	; (8002094 <vTaskSwitchContext+0x78>)
{
 8002024:	b430      	push	{r4, r5}
		taskSELECT_HIGHEST_PRIORITY_TASK();
 8002026:	4c1c      	ldr	r4, [pc, #112]	; (8002098 <vTaskSwitchContext+0x7c>)
		xYieldPending = pdFALSE;
 8002028:	6013      	str	r3, [r2, #0]
		taskSELECT_HIGHEST_PRIORITY_TASK();
 800202a:	6822      	ldr	r2, [r4, #0]
 800202c:	481b      	ldr	r0, [pc, #108]	; (800209c <vTaskSwitchContext+0x80>)
 800202e:	0093      	lsls	r3, r2, #2
 8002030:	1899      	adds	r1, r3, r2
 8002032:	0089      	lsls	r1, r1, #2
 8002034:	5841      	ldr	r1, [r0, r1]
 8002036:	b939      	cbnz	r1, 8002048 <vTaskSwitchContext+0x2c>
 8002038:	b1d2      	cbz	r2, 8002070 <vTaskSwitchContext+0x54>
 800203a:	3a01      	subs	r2, #1
 800203c:	0093      	lsls	r3, r2, #2
 800203e:	1899      	adds	r1, r3, r2
 8002040:	f850 1021 	ldr.w	r1, [r0, r1, lsl #2]
 8002044:	2900      	cmp	r1, #0
 8002046:	d0f7      	beq.n	8002038 <vTaskSwitchContext+0x1c>
 8002048:	4413      	add	r3, r2
 800204a:	009b      	lsls	r3, r3, #2
 800204c:	18c5      	adds	r5, r0, r3
 800204e:	6869      	ldr	r1, [r5, #4]
 8002050:	3308      	adds	r3, #8
 8002052:	6849      	ldr	r1, [r1, #4]
 8002054:	4403      	add	r3, r0
 8002056:	4299      	cmp	r1, r3
 8002058:	6069      	str	r1, [r5, #4]
 800205a:	d012      	beq.n	8002082 <vTaskSwitchContext+0x66>
 800205c:	68c9      	ldr	r1, [r1, #12]
 800205e:	4b10      	ldr	r3, [pc, #64]	; (80020a0 <vTaskSwitchContext+0x84>)
 8002060:	6019      	str	r1, [r3, #0]
 8002062:	6022      	str	r2, [r4, #0]
}
 8002064:	bc30      	pop	{r4, r5}
 8002066:	4770      	bx	lr
		xYieldPending = pdTRUE;
 8002068:	2201      	movs	r2, #1
 800206a:	4b0a      	ldr	r3, [pc, #40]	; (8002094 <vTaskSwitchContext+0x78>)
 800206c:	601a      	str	r2, [r3, #0]
 800206e:	4770      	bx	lr
 8002070:	f04f 0350 	mov.w	r3, #80	; 0x50
 8002074:	f383 8811 	msr	BASEPRI, r3
 8002078:	f3bf 8f6f 	isb	sy
 800207c:	f3bf 8f4f 	dsb	sy
 8002080:	e7fe      	b.n	8002080 <vTaskSwitchContext+0x64>
		taskSELECT_HIGHEST_PRIORITY_TASK();
 8002082:	2314      	movs	r3, #20
 8002084:	fb03 0002 	mla	r0, r3, r2, r0
 8002088:	6849      	ldr	r1, [r1, #4]
 800208a:	6041      	str	r1, [r0, #4]
 800208c:	e7e6      	b.n	800205c <vTaskSwitchContext+0x40>
 800208e:	bf00      	nop
 8002090:	20000b64 	.word	0x20000b64
 8002094:	20000be4 	.word	0x20000be4
 8002098:	20000b6c 	.word	0x20000b6c
 800209c:	200006f8 	.word	0x200006f8
 80020a0:	200006ec 	.word	0x200006ec

080020a4 <vTaskPlaceOnEventList>:
	configASSERT( pxEventList );
 80020a4:	b940      	cbnz	r0, 80020b8 <vTaskPlaceOnEventList+0x14>
 80020a6:	f04f 0350 	mov.w	r3, #80	; 0x50
 80020aa:	f383 8811 	msr	BASEPRI, r3
 80020ae:	f3bf 8f6f 	isb	sy
 80020b2:	f3bf 8f4f 	dsb	sy
 80020b6:	e7fe      	b.n	80020b6 <vTaskPlaceOnEventList+0x12>
{
 80020b8:	b570      	push	{r4, r5, r6, lr}
 80020ba:	460c      	mov	r4, r1
	vListInsert( pxEventList, &( pxCurrentTCB->xEventListItem ) );
 80020bc:	4d15      	ldr	r5, [pc, #84]	; (8002114 <vTaskPlaceOnEventList+0x70>)
 80020be:	6829      	ldr	r1, [r5, #0]
 80020c0:	3118      	adds	r1, #24
 80020c2:	f7fe ff1d 	bl	8000f00 <vListInsert>
const TickType_t xConstTickCount = xTickCount;
 80020c6:	4b14      	ldr	r3, [pc, #80]	; (8002118 <vTaskPlaceOnEventList+0x74>)
 80020c8:	681e      	ldr	r6, [r3, #0]
	if( uxListRemove( &( pxCurrentTCB->xStateListItem ) ) == ( UBaseType_t ) 0 )
 80020ca:	6828      	ldr	r0, [r5, #0]
 80020cc:	3004      	adds	r0, #4
 80020ce:	f7fe ff31 	bl	8000f34 <uxListRemove>
		if( ( xTicksToWait == portMAX_DELAY ) && ( xCanBlockIndefinitely != pdFALSE ) )
 80020d2:	1c63      	adds	r3, r4, #1
 80020d4:	d00f      	beq.n	80020f6 <vTaskPlaceOnEventList+0x52>
			listSET_LIST_ITEM_VALUE( &( pxCurrentTCB->xStateListItem ), xTimeToWake );
 80020d6:	682b      	ldr	r3, [r5, #0]
 80020d8:	19a4      	adds	r4, r4, r6
 80020da:	605c      	str	r4, [r3, #4]
			if( xTimeToWake < xConstTickCount )
 80020dc:	d212      	bcs.n	8002104 <vTaskPlaceOnEventList+0x60>
				vListInsert( pxDelayedTaskList, &( pxCurrentTCB->xStateListItem ) );
 80020de:	4b0f      	ldr	r3, [pc, #60]	; (800211c <vTaskPlaceOnEventList+0x78>)
 80020e0:	6818      	ldr	r0, [r3, #0]
 80020e2:	6829      	ldr	r1, [r5, #0]
 80020e4:	3104      	adds	r1, #4
 80020e6:	f7fe ff0b 	bl	8000f00 <vListInsert>
				if( xTimeToWake < xNextTaskUnblockTime )
 80020ea:	4b0d      	ldr	r3, [pc, #52]	; (8002120 <vTaskPlaceOnEventList+0x7c>)
 80020ec:	681a      	ldr	r2, [r3, #0]
 80020ee:	4294      	cmp	r4, r2
					xNextTaskUnblockTime = xTimeToWake;
 80020f0:	bf38      	it	cc
 80020f2:	601c      	strcc	r4, [r3, #0]
}
 80020f4:	bd70      	pop	{r4, r5, r6, pc}
			vListInsertEnd( &xSuspendedTaskList, &( pxCurrentTCB->xStateListItem ) );
 80020f6:	6829      	ldr	r1, [r5, #0]
 80020f8:	480a      	ldr	r0, [pc, #40]	; (8002124 <vTaskPlaceOnEventList+0x80>)
 80020fa:	3104      	adds	r1, #4
}
 80020fc:	e8bd 4070 	ldmia.w	sp!, {r4, r5, r6, lr}
			vListInsertEnd( &xSuspendedTaskList, &( pxCurrentTCB->xStateListItem ) );
 8002100:	f7fe bef0 	b.w	8000ee4 <vListInsertEnd>
				vListInsert( pxOverflowDelayedTaskList, &( pxCurrentTCB->xStateListItem ) );
 8002104:	4b08      	ldr	r3, [pc, #32]	; (8002128 <vTaskPlaceOnEventList+0x84>)
 8002106:	6818      	ldr	r0, [r3, #0]
 8002108:	6829      	ldr	r1, [r5, #0]
}
 800210a:	e8bd 4070 	ldmia.w	sp!, {r4, r5, r6, lr}
				vListInsert( pxOverflowDelayedTaskList, &( pxCurrentTCB->xStateListItem ) );
 800210e:	3104      	adds	r1, #4
 8002110:	f7fe bef6 	b.w	8000f00 <vListInsert>
 8002114:	200006ec 	.word	0x200006ec
 8002118:	20000be0 	.word	0x20000be0
 800211c:	200006f0 	.word	0x200006f0
 8002120:	20000b98 	.word	0x20000b98
 8002124:	20000bb8 	.word	0x20000bb8
 8002128:	200006f4 	.word	0x200006f4

0800212c <vTaskPlaceOnEventListRestricted>:
		configASSERT( pxEventList );
 800212c:	b1a8      	cbz	r0, 800215a <vTaskPlaceOnEventListRestricted+0x2e>
	{
 800212e:	b570      	push	{r4, r5, r6, lr}
 8002130:	4616      	mov	r6, r2
		vListInsertEnd( pxEventList, &( pxCurrentTCB->xEventListItem ) );
 8002132:	4d1d      	ldr	r5, [pc, #116]	; (80021a8 <vTaskPlaceOnEventListRestricted+0x7c>)
 8002134:	460c      	mov	r4, r1
 8002136:	6829      	ldr	r1, [r5, #0]
 8002138:	3118      	adds	r1, #24
 800213a:	f7fe fed3 	bl	8000ee4 <vListInsertEnd>
const TickType_t xConstTickCount = xTickCount;
 800213e:	4b1b      	ldr	r3, [pc, #108]	; (80021ac <vTaskPlaceOnEventListRestricted+0x80>)
		if( xWaitIndefinitely != pdFALSE )
 8002140:	b1a6      	cbz	r6, 800216c <vTaskPlaceOnEventListRestricted+0x40>
const TickType_t xConstTickCount = xTickCount;
 8002142:	681b      	ldr	r3, [r3, #0]
	if( uxListRemove( &( pxCurrentTCB->xStateListItem ) ) == ( UBaseType_t ) 0 )
 8002144:	6828      	ldr	r0, [r5, #0]
 8002146:	3004      	adds	r0, #4
 8002148:	f7fe fef4 	bl	8000f34 <uxListRemove>
			vListInsertEnd( &xSuspendedTaskList, &( pxCurrentTCB->xStateListItem ) );
 800214c:	6829      	ldr	r1, [r5, #0]
 800214e:	4818      	ldr	r0, [pc, #96]	; (80021b0 <vTaskPlaceOnEventListRestricted+0x84>)
 8002150:	3104      	adds	r1, #4
	}
 8002152:	e8bd 4070 	ldmia.w	sp!, {r4, r5, r6, lr}
			vListInsertEnd( &xSuspendedTaskList, &( pxCurrentTCB->xStateListItem ) );
 8002156:	f7fe bec5 	b.w	8000ee4 <vListInsertEnd>
 800215a:	f04f 0350 	mov.w	r3, #80	; 0x50
 800215e:	f383 8811 	msr	BASEPRI, r3
 8002162:	f3bf 8f6f 	isb	sy
 8002166:	f3bf 8f4f 	dsb	sy
 800216a:	e7fe      	b.n	800216a <vTaskPlaceOnEventListRestricted+0x3e>
const TickType_t xConstTickCount = xTickCount;
 800216c:	681e      	ldr	r6, [r3, #0]
	if( uxListRemove( &( pxCurrentTCB->xStateListItem ) ) == ( UBaseType_t ) 0 )
 800216e:	6828      	ldr	r0, [r5, #0]
 8002170:	3004      	adds	r0, #4
 8002172:	f7fe fedf 	bl	8000f34 <uxListRemove>
			listSET_LIST_ITEM_VALUE( &( pxCurrentTCB->xStateListItem ), xTimeToWake );
 8002176:	682b      	ldr	r3, [r5, #0]
 8002178:	19a4      	adds	r4, r4, r6
 800217a:	605c      	str	r4, [r3, #4]
			if( xTimeToWake < xConstTickCount )
 800217c:	d20b      	bcs.n	8002196 <vTaskPlaceOnEventListRestricted+0x6a>
				vListInsert( pxDelayedTaskList, &( pxCurrentTCB->xStateListItem ) );
 800217e:	4b0d      	ldr	r3, [pc, #52]	; (80021b4 <vTaskPlaceOnEventListRestricted+0x88>)
 8002180:	6818      	ldr	r0, [r3, #0]
 8002182:	6829      	ldr	r1, [r5, #0]
 8002184:	3104      	adds	r1, #4
 8002186:	f7fe febb 	bl	8000f00 <vListInsert>
				if( xTimeToWake < xNextTaskUnblockTime )
 800218a:	4b0b      	ldr	r3, [pc, #44]	; (80021b8 <vTaskPlaceOnEventListRestricted+0x8c>)
 800218c:	681a      	ldr	r2, [r3, #0]
 800218e:	4294      	cmp	r4, r2
					xNextTaskUnblockTime = xTimeToWake;
 8002190:	bf38      	it	cc
 8002192:	601c      	strcc	r4, [r3, #0]
	}
 8002194:	bd70      	pop	{r4, r5, r6, pc}
				vListInsert( pxOverflowDelayedTaskList, &( pxCurrentTCB->xStateListItem ) );
 8002196:	4b09      	ldr	r3, [pc, #36]	; (80021bc <vTaskPlaceOnEventListRestricted+0x90>)
 8002198:	6818      	ldr	r0, [r3, #0]
 800219a:	6829      	ldr	r1, [r5, #0]
	}
 800219c:	e8bd 4070 	ldmia.w	sp!, {r4, r5, r6, lr}
				vListInsert( pxOverflowDelayedTaskList, &( pxCurrentTCB->xStateListItem ) );
 80021a0:	3104      	adds	r1, #4
 80021a2:	f7fe bead 	b.w	8000f00 <vListInsert>
 80021a6:	bf00      	nop
 80021a8:	200006ec 	.word	0x200006ec
 80021ac:	20000be0 	.word	0x20000be0
 80021b0:	20000bb8 	.word	0x20000bb8
 80021b4:	200006f0 	.word	0x200006f0
 80021b8:	20000b98 	.word	0x20000b98
 80021bc:	200006f4 	.word	0x200006f4

080021c0 <xTaskRemoveFromEventList>:
{
 80021c0:	b538      	push	{r3, r4, r5, lr}
	pxUnblockedTCB = ( TCB_t * ) listGET_OWNER_OF_HEAD_ENTRY( pxEventList );
 80021c2:	68c3      	ldr	r3, [r0, #12]
 80021c4:	68dc      	ldr	r4, [r3, #12]
	configASSERT( pxUnblockedTCB );
 80021c6:	b34c      	cbz	r4, 800221c <xTaskRemoveFromEventList+0x5c>
	( void ) uxListRemove( &( pxUnblockedTCB->xEventListItem ) );
 80021c8:	f104 0518 	add.w	r5, r4, #24
 80021cc:	4628      	mov	r0, r5
 80021ce:	f7fe feb1 	bl	8000f34 <uxListRemove>
	if( uxSchedulerSuspended == ( UBaseType_t ) pdFALSE )
 80021d2:	4b18      	ldr	r3, [pc, #96]	; (8002234 <xTaskRemoveFromEventList+0x74>)
 80021d4:	681b      	ldr	r3, [r3, #0]
 80021d6:	b9e3      	cbnz	r3, 8002212 <xTaskRemoveFromEventList+0x52>
		( void ) uxListRemove( &( pxUnblockedTCB->xStateListItem ) );
 80021d8:	1d25      	adds	r5, r4, #4
 80021da:	4628      	mov	r0, r5
 80021dc:	f7fe feaa 	bl	8000f34 <uxListRemove>
		prvAddTaskToReadyList( pxUnblockedTCB );
 80021e0:	4a15      	ldr	r2, [pc, #84]	; (8002238 <xTaskRemoveFromEventList+0x78>)
 80021e2:	6ae3      	ldr	r3, [r4, #44]	; 0x2c
 80021e4:	6811      	ldr	r1, [r2, #0]
 80021e6:	4815      	ldr	r0, [pc, #84]	; (800223c <xTaskRemoveFromEventList+0x7c>)
 80021e8:	428b      	cmp	r3, r1
 80021ea:	bf88      	it	hi
 80021ec:	6013      	strhi	r3, [r2, #0]
 80021ee:	eb03 0383 	add.w	r3, r3, r3, lsl #2
 80021f2:	4629      	mov	r1, r5
 80021f4:	eb00 0083 	add.w	r0, r0, r3, lsl #2
 80021f8:	f7fe fe74 	bl	8000ee4 <vListInsertEnd>
	if( pxUnblockedTCB->uxPriority > pxCurrentTCB->uxPriority )
 80021fc:	4b10      	ldr	r3, [pc, #64]	; (8002240 <xTaskRemoveFromEventList+0x80>)
 80021fe:	6ae2      	ldr	r2, [r4, #44]	; 0x2c
 8002200:	681b      	ldr	r3, [r3, #0]
 8002202:	6adb      	ldr	r3, [r3, #44]	; 0x2c
 8002204:	429a      	cmp	r2, r3
 8002206:	d912      	bls.n	800222e <xTaskRemoveFromEventList+0x6e>
		xYieldPending = pdTRUE;
 8002208:	2301      	movs	r3, #1
 800220a:	4a0e      	ldr	r2, [pc, #56]	; (8002244 <xTaskRemoveFromEventList+0x84>)
		xReturn = pdTRUE;
 800220c:	4618      	mov	r0, r3
		xYieldPending = pdTRUE;
 800220e:	6013      	str	r3, [r2, #0]
}
 8002210:	bd38      	pop	{r3, r4, r5, pc}
		vListInsertEnd( &( xPendingReadyList ), &( pxUnblockedTCB->xEventListItem ) );
 8002212:	4629      	mov	r1, r5
 8002214:	480c      	ldr	r0, [pc, #48]	; (8002248 <xTaskRemoveFromEventList+0x88>)
 8002216:	f7fe fe65 	bl	8000ee4 <vListInsertEnd>
 800221a:	e7ef      	b.n	80021fc <xTaskRemoveFromEventList+0x3c>
 800221c:	f04f 0350 	mov.w	r3, #80	; 0x50
 8002220:	f383 8811 	msr	BASEPRI, r3
 8002224:	f3bf 8f6f 	isb	sy
 8002228:	f3bf 8f4f 	dsb	sy
 800222c:	e7fe      	b.n	800222c <xTaskRemoveFromEventList+0x6c>
		xReturn = pdFALSE;
 800222e:	2000      	movs	r0, #0
}
 8002230:	bd38      	pop	{r3, r4, r5, pc}
 8002232:	bf00      	nop
 8002234:	20000b64 	.word	0x20000b64
 8002238:	20000b6c 	.word	0x20000b6c
 800223c:	200006f8 	.word	0x200006f8
 8002240:	200006ec 	.word	0x200006ec
 8002244:	20000be4 	.word	0x20000be4
 8002248:	20000ba0 	.word	0x20000ba0

0800224c <vTaskInternalSetTimeOutState>:
	pxTimeOut->xOverflowCount = xNumOfOverflows;
 800224c:	4a03      	ldr	r2, [pc, #12]	; (800225c <vTaskInternalSetTimeOutState+0x10>)
	pxTimeOut->xTimeOnEntering = xTickCount;
 800224e:	4b04      	ldr	r3, [pc, #16]	; (8002260 <vTaskInternalSetTimeOutState+0x14>)
	pxTimeOut->xOverflowCount = xNumOfOverflows;
 8002250:	6812      	ldr	r2, [r2, #0]
	pxTimeOut->xTimeOnEntering = xTickCount;
 8002252:	681b      	ldr	r3, [r3, #0]
 8002254:	e9c0 2300 	strd	r2, r3, [r0]
}
 8002258:	4770      	bx	lr
 800225a:	bf00      	nop
 800225c:	20000b9c 	.word	0x20000b9c
 8002260:	20000be0 	.word	0x20000be0

08002264 <xTaskCheckForTimeOut>:
{
 8002264:	b5f8      	push	{r3, r4, r5, r6, r7, lr}
	configASSERT( pxTimeOut );
 8002266:	b340      	cbz	r0, 80022ba <xTaskCheckForTimeOut+0x56>
	configASSERT( pxTicksToWait );
 8002268:	b1f1      	cbz	r1, 80022a8 <xTaskCheckForTimeOut+0x44>
 800226a:	460d      	mov	r5, r1
 800226c:	4604      	mov	r4, r0
	taskENTER_CRITICAL();
 800226e:	f000 fac1 	bl	80027f4 <vPortEnterCritical>
		const TickType_t xConstTickCount = xTickCount;
 8002272:	f8df c078 	ldr.w	ip, [pc, #120]	; 80022ec <xTaskCheckForTimeOut+0x88>
			if( *pxTicksToWait == portMAX_DELAY )
 8002276:	682b      	ldr	r3, [r5, #0]
		const TickType_t xElapsedTime = xConstTickCount - pxTimeOut->xTimeOnEntering;
 8002278:	6867      	ldr	r7, [r4, #4]
		const TickType_t xConstTickCount = xTickCount;
 800227a:	f8dc 6000 	ldr.w	r6, [ip]
			if( *pxTicksToWait == portMAX_DELAY )
 800227e:	1c59      	adds	r1, r3, #1
		const TickType_t xElapsedTime = xConstTickCount - pxTimeOut->xTimeOnEntering;
 8002280:	eba6 0207 	sub.w	r2, r6, r7
			if( *pxTicksToWait == portMAX_DELAY )
 8002284:	d022      	beq.n	80022cc <xTaskCheckForTimeOut+0x68>
		if( ( xNumOfOverflows != pxTimeOut->xOverflowCount ) && ( xConstTickCount >= pxTimeOut->xTimeOnEntering ) ) /*lint !e525 Indentation preferred as is to make code within pre-processor directives clearer. */
 8002286:	4818      	ldr	r0, [pc, #96]	; (80022e8 <xTaskCheckForTimeOut+0x84>)
 8002288:	6821      	ldr	r1, [r4, #0]
 800228a:	f8d0 e000 	ldr.w	lr, [r0]
 800228e:	4571      	cmp	r1, lr
 8002290:	d001      	beq.n	8002296 <xTaskCheckForTimeOut+0x32>
 8002292:	42b7      	cmp	r7, r6
 8002294:	d925      	bls.n	80022e2 <xTaskCheckForTimeOut+0x7e>
		else if( xElapsedTime < *pxTicksToWait ) /*lint !e961 Explicit casting is only redundant with some compilers, whereas others require it to prevent integer conversion errors. */
 8002296:	4293      	cmp	r3, r2
 8002298:	d81a      	bhi.n	80022d0 <xTaskCheckForTimeOut+0x6c>
			*pxTicksToWait = 0;
 800229a:	2300      	movs	r3, #0
			xReturn = pdTRUE;
 800229c:	2601      	movs	r6, #1
			*pxTicksToWait = 0;
 800229e:	602b      	str	r3, [r5, #0]
	taskEXIT_CRITICAL();
 80022a0:	f000 faca 	bl	8002838 <vPortExitCritical>
}
 80022a4:	4630      	mov	r0, r6
 80022a6:	bdf8      	pop	{r3, r4, r5, r6, r7, pc}
 80022a8:	f04f 0350 	mov.w	r3, #80	; 0x50
 80022ac:	f383 8811 	msr	BASEPRI, r3
 80022b0:	f3bf 8f6f 	isb	sy
 80022b4:	f3bf 8f4f 	dsb	sy
 80022b8:	e7fe      	b.n	80022b8 <xTaskCheckForTimeOut+0x54>
 80022ba:	f04f 0350 	mov.w	r3, #80	; 0x50
 80022be:	f383 8811 	msr	BASEPRI, r3
 80022c2:	f3bf 8f6f 	isb	sy
 80022c6:	f3bf 8f4f 	dsb	sy
 80022ca:	e7fe      	b.n	80022ca <xTaskCheckForTimeOut+0x66>
				xReturn = pdFALSE;
 80022cc:	2600      	movs	r6, #0
 80022ce:	e7e7      	b.n	80022a0 <xTaskCheckForTimeOut+0x3c>
	pxTimeOut->xOverflowCount = xNumOfOverflows;
 80022d0:	6800      	ldr	r0, [r0, #0]
	pxTimeOut->xTimeOnEntering = xTickCount;
 80022d2:	f8dc 1000 	ldr.w	r1, [ip]
			*pxTicksToWait -= xElapsedTime;
 80022d6:	1a9b      	subs	r3, r3, r2
 80022d8:	602b      	str	r3, [r5, #0]
			xReturn = pdFALSE;
 80022da:	2600      	movs	r6, #0
	pxTimeOut->xTimeOnEntering = xTickCount;
 80022dc:	e9c4 0100 	strd	r0, r1, [r4]
 80022e0:	e7de      	b.n	80022a0 <xTaskCheckForTimeOut+0x3c>
			xReturn = pdTRUE;
 80022e2:	2601      	movs	r6, #1
 80022e4:	e7dc      	b.n	80022a0 <xTaskCheckForTimeOut+0x3c>
 80022e6:	bf00      	nop
 80022e8:	20000b9c 	.word	0x20000b9c
 80022ec:	20000be0 	.word	0x20000be0

080022f0 <vTaskMissedYield>:
	xYieldPending = pdTRUE;
 80022f0:	2201      	movs	r2, #1
 80022f2:	4b01      	ldr	r3, [pc, #4]	; (80022f8 <vTaskMissedYield+0x8>)
 80022f4:	601a      	str	r2, [r3, #0]
}
 80022f6:	4770      	bx	lr
 80022f8:	20000be4 	.word	0x20000be4

080022fc <xTaskGetSchedulerState>:
		if( xSchedulerRunning == pdFALSE )
 80022fc:	4b05      	ldr	r3, [pc, #20]	; (8002314 <xTaskGetSchedulerState+0x18>)
 80022fe:	681b      	ldr	r3, [r3, #0]
 8002300:	b133      	cbz	r3, 8002310 <xTaskGetSchedulerState+0x14>
			if( uxSchedulerSuspended == ( UBaseType_t ) pdFALSE )
 8002302:	4b05      	ldr	r3, [pc, #20]	; (8002318 <xTaskGetSchedulerState+0x1c>)
 8002304:	681b      	ldr	r3, [r3, #0]
 8002306:	2b00      	cmp	r3, #0
				xReturn = taskSCHEDULER_SUSPENDED;
 8002308:	bf0c      	ite	eq
 800230a:	2002      	moveq	r0, #2
 800230c:	2000      	movne	r0, #0
 800230e:	4770      	bx	lr
			xReturn = taskSCHEDULER_NOT_STARTED;
 8002310:	2001      	movs	r0, #1
	}
 8002312:	4770      	bx	lr
 8002314:	20000bb4 	.word	0x20000bb4
 8002318:	20000b64 	.word	0x20000b64

0800231c <xTaskPriorityDisinherit>:
		if( pxMutexHolder != NULL )
 800231c:	b168      	cbz	r0, 800233a <xTaskPriorityDisinherit+0x1e>
	{
 800231e:	b538      	push	{r3, r4, r5, lr}
			configASSERT( pxTCB == pxCurrentTCB );
 8002320:	4b1c      	ldr	r3, [pc, #112]	; (8002394 <xTaskPriorityDisinherit+0x78>)
 8002322:	681c      	ldr	r4, [r3, #0]
 8002324:	4284      	cmp	r4, r0
 8002326:	d00a      	beq.n	800233e <xTaskPriorityDisinherit+0x22>
 8002328:	f04f 0350 	mov.w	r3, #80	; 0x50
 800232c:	f383 8811 	msr	BASEPRI, r3
 8002330:	f3bf 8f6f 	isb	sy
 8002334:	f3bf 8f4f 	dsb	sy
 8002338:	e7fe      	b.n	8002338 <xTaskPriorityDisinherit+0x1c>
	BaseType_t xReturn = pdFALSE;
 800233a:	2000      	movs	r0, #0
	}
 800233c:	4770      	bx	lr
			configASSERT( pxTCB->uxMutexesHeld );
 800233e:	6d23      	ldr	r3, [r4, #80]	; 0x50
 8002340:	b943      	cbnz	r3, 8002354 <xTaskPriorityDisinherit+0x38>
 8002342:	f04f 0350 	mov.w	r3, #80	; 0x50
 8002346:	f383 8811 	msr	BASEPRI, r3
 800234a:	f3bf 8f6f 	isb	sy
 800234e:	f3bf 8f4f 	dsb	sy
 8002352:	e7fe      	b.n	8002352 <xTaskPriorityDisinherit+0x36>
			if( pxTCB->uxPriority != pxTCB->uxBasePriority )
 8002354:	6ae1      	ldr	r1, [r4, #44]	; 0x2c
 8002356:	6ce2      	ldr	r2, [r4, #76]	; 0x4c
			( pxTCB->uxMutexesHeld )--;
 8002358:	3b01      	subs	r3, #1
			if( pxTCB->uxPriority != pxTCB->uxBasePriority )
 800235a:	4291      	cmp	r1, r2
			( pxTCB->uxMutexesHeld )--;
 800235c:	6523      	str	r3, [r4, #80]	; 0x50
			if( pxTCB->uxPriority != pxTCB->uxBasePriority )
 800235e:	d000      	beq.n	8002362 <xTaskPriorityDisinherit+0x46>
				if( pxTCB->uxMutexesHeld == ( UBaseType_t ) 0 )
 8002360:	b10b      	cbz	r3, 8002366 <xTaskPriorityDisinherit+0x4a>
	BaseType_t xReturn = pdFALSE;
 8002362:	2000      	movs	r0, #0
	}
 8002364:	bd38      	pop	{r3, r4, r5, pc}
					if( uxListRemove( &( pxTCB->xStateListItem ) ) == ( UBaseType_t ) 0 )
 8002366:	1d25      	adds	r5, r4, #4
 8002368:	4628      	mov	r0, r5
 800236a:	f7fe fde3 	bl	8000f34 <uxListRemove>
					pxTCB->uxPriority = pxTCB->uxBasePriority;
 800236e:	6ce3      	ldr	r3, [r4, #76]	; 0x4c
					prvAddTaskToReadyList( pxTCB );
 8002370:	4a09      	ldr	r2, [pc, #36]	; (8002398 <xTaskPriorityDisinherit+0x7c>)
					listSET_LIST_ITEM_VALUE( &( pxTCB->xEventListItem ), ( TickType_t ) configMAX_PRIORITIES - ( TickType_t ) pxTCB->uxPriority ); /*lint !e961 MISRA exception as the casts are only redundant for some ports. */
 8002372:	f1c3 0038 	rsb	r0, r3, #56	; 0x38
 8002376:	61a0      	str	r0, [r4, #24]
					prvAddTaskToReadyList( pxTCB );
 8002378:	2014      	movs	r0, #20
 800237a:	6811      	ldr	r1, [r2, #0]
					pxTCB->uxPriority = pxTCB->uxBasePriority;
 800237c:	62e3      	str	r3, [r4, #44]	; 0x2c
					prvAddTaskToReadyList( pxTCB );
 800237e:	428b      	cmp	r3, r1
 8002380:	bf88      	it	hi
 8002382:	6013      	strhi	r3, [r2, #0]
 8002384:	4a05      	ldr	r2, [pc, #20]	; (800239c <xTaskPriorityDisinherit+0x80>)
 8002386:	4629      	mov	r1, r5
 8002388:	fb00 2003 	mla	r0, r0, r3, r2
 800238c:	f7fe fdaa 	bl	8000ee4 <vListInsertEnd>
					xReturn = pdTRUE;
 8002390:	2001      	movs	r0, #1
	}
 8002392:	bd38      	pop	{r3, r4, r5, pc}
 8002394:	200006ec 	.word	0x200006ec
 8002398:	20000b6c 	.word	0x20000b6c
 800239c:	200006f8 	.word	0x200006f8

080023a0 <prvSwitchTimerLists>:
	}
}
/*-----------------------------------------------------------*/

static void prvSwitchTimerLists( void )
{
 80023a0:	e92d 43f0 	stmdb	sp!, {r4, r5, r6, r7, r8, r9, lr}
 80023a4:	4e20      	ldr	r6, [pc, #128]	; (8002428 <prvSwitchTimerLists+0x88>)
 80023a6:	b085      	sub	sp, #20
	if( xTimerQueue != NULL )
 80023a8:	4f20      	ldr	r7, [pc, #128]	; (800242c <prvSwitchTimerLists+0x8c>)
		xMessage.xMessageID = xCommandID;
 80023aa:	f04f 0800 	mov.w	r8, #0

	/* The tick count has overflowed.  The timer lists must be switched.
	If there are any timers still referenced from the current timer list
	then they must have expired and should be processed before the lists
	are switched. */
	while( listLIST_IS_EMPTY( pxCurrentTimerList ) == pdFALSE )
 80023ae:	e00d      	b.n	80023cc <prvSwitchTimerLists+0x2c>
	{
		xNextExpireTime = listGET_ITEM_VALUE_OF_HEAD_ENTRY( pxCurrentTimerList );
 80023b0:	68db      	ldr	r3, [r3, #12]

		/* Remove the timer from the list. */
		pxTimer = ( Timer_t * ) listGET_OWNER_OF_HEAD_ENTRY( pxCurrentTimerList );
 80023b2:	68dc      	ldr	r4, [r3, #12]
		xNextExpireTime = listGET_ITEM_VALUE_OF_HEAD_ENTRY( pxCurrentTimerList );
 80023b4:	f8d3 9000 	ldr.w	r9, [r3]
		( void ) uxListRemove( &( pxTimer->xTimerListItem ) );
 80023b8:	1d25      	adds	r5, r4, #4
 80023ba:	4628      	mov	r0, r5
 80023bc:	f7fe fdba 	bl	8000f34 <uxListRemove>
		traceTIMER_EXPIRED( pxTimer );

		/* Execute its callback, then send a command to restart the timer if
		it is an auto-reload timer.  It cannot be restarted here as the lists
		have not yet been switched. */
		pxTimer->pxCallbackFunction( ( TimerHandle_t ) pxTimer );
 80023c0:	6a63      	ldr	r3, [r4, #36]	; 0x24
 80023c2:	4620      	mov	r0, r4
 80023c4:	4798      	blx	r3

		if( pxTimer->uxAutoReload == ( UBaseType_t ) pdTRUE )
 80023c6:	69e3      	ldr	r3, [r4, #28]
 80023c8:	2b01      	cmp	r3, #1
 80023ca:	d00a      	beq.n	80023e2 <prvSwitchTimerLists+0x42>
	while( listLIST_IS_EMPTY( pxCurrentTimerList ) == pdFALSE )
 80023cc:	6833      	ldr	r3, [r6, #0]
 80023ce:	681a      	ldr	r2, [r3, #0]
 80023d0:	2a00      	cmp	r2, #0
 80023d2:	d1ed      	bne.n	80023b0 <prvSwitchTimerLists+0x10>
			mtCOVERAGE_TEST_MARKER();
		}
	}

	pxTemp = pxCurrentTimerList;
	pxCurrentTimerList = pxOverflowTimerList;
 80023d4:	4a16      	ldr	r2, [pc, #88]	; (8002430 <prvSwitchTimerLists+0x90>)
 80023d6:	6811      	ldr	r1, [r2, #0]
	pxOverflowTimerList = pxTemp;
 80023d8:	6013      	str	r3, [r2, #0]
	pxCurrentTimerList = pxOverflowTimerList;
 80023da:	6031      	str	r1, [r6, #0]
}
 80023dc:	b005      	add	sp, #20
 80023de:	e8bd 83f0 	ldmia.w	sp!, {r4, r5, r6, r7, r8, r9, pc}
			xReloadTime = ( xNextExpireTime + pxTimer->xTimerPeriodInTicks );
 80023e2:	69a3      	ldr	r3, [r4, #24]
 80023e4:	444b      	add	r3, r9
			if( xReloadTime > xNextExpireTime )
 80023e6:	4599      	cmp	r9, r3
 80023e8:	d317      	bcc.n	800241a <prvSwitchTimerLists+0x7a>
	if( xTimerQueue != NULL )
 80023ea:	683b      	ldr	r3, [r7, #0]
 80023ec:	b163      	cbz	r3, 8002408 <prvSwitchTimerLists+0x68>
		xMessage.u.xTimerParameters.xMessageValue = xOptionalValue;
 80023ee:	e9cd 8900 	strd	r8, r9, [sp]
		xMessage.u.xTimerParameters.pxTimer = ( Timer_t * ) xTimer;
 80023f2:	9402      	str	r4, [sp, #8]
			if( xTaskGetSchedulerState() == taskSCHEDULER_RUNNING )
 80023f4:	f7ff ff82 	bl	80022fc <xTaskGetSchedulerState>
				xReturn = xQueueSendToBack( xTimerQueue, &xMessage, xTicksToWait );
 80023f8:	2300      	movs	r3, #0
 80023fa:	4669      	mov	r1, sp
 80023fc:	461a      	mov	r2, r3
 80023fe:	6838      	ldr	r0, [r7, #0]
 8002400:	f7fe fe44 	bl	800108c <xQueueGenericSend>
				configASSERT( xResult );
 8002404:	2800      	cmp	r0, #0
 8002406:	d1e1      	bne.n	80023cc <prvSwitchTimerLists+0x2c>
 8002408:	f04f 0350 	mov.w	r3, #80	; 0x50
 800240c:	f383 8811 	msr	BASEPRI, r3
 8002410:	f3bf 8f6f 	isb	sy
 8002414:	f3bf 8f4f 	dsb	sy
 8002418:	e7fe      	b.n	8002418 <prvSwitchTimerLists+0x78>
				listSET_LIST_ITEM_VALUE( &( pxTimer->xTimerListItem ), xReloadTime );
 800241a:	6063      	str	r3, [r4, #4]
				listSET_LIST_ITEM_OWNER( &( pxTimer->xTimerListItem ), pxTimer );
 800241c:	6124      	str	r4, [r4, #16]
				vListInsert( pxCurrentTimerList, &( pxTimer->xTimerListItem ) );
 800241e:	4629      	mov	r1, r5
 8002420:	6830      	ldr	r0, [r6, #0]
 8002422:	f7fe fd6d 	bl	8000f00 <vListInsert>
 8002426:	e7d1      	b.n	80023cc <prvSwitchTimerLists+0x2c>
 8002428:	20000be8 	.word	0x20000be8
 800242c:	20000d0c 	.word	0x20000d0c
 8002430:	20000bec 	.word	0x20000bec

08002434 <prvTimerTask>:
{
 8002434:	e92d 4ff0 	stmdb	sp!, {r4, r5, r6, r7, r8, r9, sl, fp, lr}
 8002438:	f04f 0a01 	mov.w	sl, #1
 800243c:	4f8e      	ldr	r7, [pc, #568]	; (8002678 <prvTimerTask+0x244>)
 800243e:	4e8f      	ldr	r6, [pc, #572]	; (800267c <prvTimerTask+0x248>)
 8002440:	f8df 9244 	ldr.w	r9, [pc, #580]	; 8002688 <prvTimerTask+0x254>
 8002444:	4d8e      	ldr	r5, [pc, #568]	; (8002680 <prvTimerTask+0x24c>)
 8002446:	b08b      	sub	sp, #44	; 0x2c
	*pxListWasEmpty = listLIST_IS_EMPTY( pxCurrentTimerList );
 8002448:	683b      	ldr	r3, [r7, #0]
 800244a:	681c      	ldr	r4, [r3, #0]
	if( *pxListWasEmpty == pdFALSE )
 800244c:	2c00      	cmp	r4, #0
 800244e:	d052      	beq.n	80024f6 <prvTimerTask+0xc2>
		xNextExpireTime = listGET_ITEM_VALUE_OF_HEAD_ENTRY( pxCurrentTimerList );
 8002450:	68db      	ldr	r3, [r3, #12]
 8002452:	681c      	ldr	r4, [r3, #0]
	vTaskSuspendAll();
 8002454:	f7ff fc86 	bl	8001d64 <vTaskSuspendAll>
	xTimeNow = xTaskGetTickCount();
 8002458:	f7ff fc8c 	bl	8001d74 <xTaskGetTickCount>
	if( xTimeNow < xLastTime )
 800245c:	6832      	ldr	r2, [r6, #0]
	xTimeNow = xTaskGetTickCount();
 800245e:	4683      	mov	fp, r0
	if( xTimeNow < xLastTime )
 8002460:	4290      	cmp	r0, r2
 8002462:	d359      	bcc.n	8002518 <prvTimerTask+0xe4>
			if( ( xListWasEmpty == pdFALSE ) && ( xNextExpireTime <= xTimeNow ) )
 8002464:	4284      	cmp	r4, r0
	xLastTime = xTimeNow;
 8002466:	6030      	str	r0, [r6, #0]
			if( ( xListWasEmpty == pdFALSE ) && ( xNextExpireTime <= xTimeNow ) )
 8002468:	d973      	bls.n	8002552 <prvTimerTask+0x11e>
 800246a:	2200      	movs	r2, #0
				vQueueWaitForMessageRestricted( xTimerQueue, ( xNextExpireTime - xTimeNow ), xListWasEmpty );
 800246c:	eba4 010b 	sub.w	r1, r4, fp
 8002470:	6828      	ldr	r0, [r5, #0]
 8002472:	f7ff f965 	bl	8001740 <vQueueWaitForMessageRestricted>
				if( xTaskResumeAll() == pdFALSE )
 8002476:	f7ff fd27 	bl	8001ec8 <xTaskResumeAll>
 800247a:	b938      	cbnz	r0, 800248c <prvTimerTask+0x58>
					portYIELD_WITHIN_API();
 800247c:	f04f 5380 	mov.w	r3, #268435456	; 0x10000000
 8002480:	4a80      	ldr	r2, [pc, #512]	; (8002684 <prvTimerTask+0x250>)
 8002482:	6013      	str	r3, [r2, #0]
 8002484:	f3bf 8f4f 	dsb	sy
 8002488:	f3bf 8f6f 	isb	sy
	while( xQueueReceive( xTimerQueue, &xMessage, tmrNO_DELAY ) != pdFAIL ) /*lint !e603 xMessage does not have to be initialised as it is passed out, not in, and it is not used unless xQueueReceive() returns pdTRUE. */
 800248c:	f04f 0800 	mov.w	r8, #0
 8002490:	2200      	movs	r2, #0
 8002492:	a902      	add	r1, sp, #8
 8002494:	6828      	ldr	r0, [r5, #0]
 8002496:	f7fe ffc5 	bl	8001424 <xQueueReceive>
 800249a:	2800      	cmp	r0, #0
 800249c:	d0d4      	beq.n	8002448 <prvTimerTask+0x14>
			if( xMessage.xMessageID < ( BaseType_t ) 0 )
 800249e:	9b02      	ldr	r3, [sp, #8]
 80024a0:	9c04      	ldr	r4, [sp, #16]
 80024a2:	2b00      	cmp	r3, #0
 80024a4:	da07      	bge.n	80024b6 <prvTimerTask+0x82>
				pxCallback->pxCallbackFunction( pxCallback->pvParameter1, pxCallback->ulParameter2 );
 80024a6:	9b03      	ldr	r3, [sp, #12]
 80024a8:	4620      	mov	r0, r4
 80024aa:	9905      	ldr	r1, [sp, #20]
 80024ac:	4798      	blx	r3
		if( xMessage.xMessageID >= ( BaseType_t ) 0 )
 80024ae:	9b02      	ldr	r3, [sp, #8]
 80024b0:	2b00      	cmp	r3, #0
 80024b2:	dbed      	blt.n	8002490 <prvTimerTask+0x5c>
 80024b4:	9c04      	ldr	r4, [sp, #16]
			if( listIS_CONTAINED_WITHIN( NULL, &( pxTimer->xTimerListItem ) ) == pdFALSE ) /*lint !e961. The cast is only redundant when NULL is passed into the macro. */
 80024b6:	6963      	ldr	r3, [r4, #20]
 80024b8:	b113      	cbz	r3, 80024c0 <prvTimerTask+0x8c>
				( void ) uxListRemove( &( pxTimer->xTimerListItem ) );
 80024ba:	1d20      	adds	r0, r4, #4
 80024bc:	f7fe fd3a 	bl	8000f34 <uxListRemove>
	xTimeNow = xTaskGetTickCount();
 80024c0:	f7ff fc58 	bl	8001d74 <xTaskGetTickCount>
	if( xTimeNow < xLastTime )
 80024c4:	6833      	ldr	r3, [r6, #0]
 80024c6:	4298      	cmp	r0, r3
 80024c8:	d32d      	bcc.n	8002526 <prvTimerTask+0xf2>
 80024ca:	9b02      	ldr	r3, [sp, #8]
	xLastTime = xTimeNow;
 80024cc:	6030      	str	r0, [r6, #0]
 80024ce:	2b09      	cmp	r3, #9
 80024d0:	d8de      	bhi.n	8002490 <prvTimerTask+0x5c>
 80024d2:	fa0a f303 	lsl.w	r3, sl, r3
 80024d6:	f413 7f04 	tst.w	r3, #528	; 0x210
 80024da:	d129      	bne.n	8002530 <prvTimerTask+0xfc>
 80024dc:	f013 0fc7 	tst.w	r3, #199	; 0xc7
 80024e0:	d14d      	bne.n	800257e <prvTimerTask+0x14a>
 80024e2:	069b      	lsls	r3, r3, #26
 80024e4:	d5d4      	bpl.n	8002490 <prvTimerTask+0x5c>
						if( pxTimer->ucStaticallyAllocated == ( uint8_t ) pdFALSE )
 80024e6:	f894 302c 	ldrb.w	r3, [r4, #44]	; 0x2c
 80024ea:	2b00      	cmp	r3, #0
 80024ec:	d1d0      	bne.n	8002490 <prvTimerTask+0x5c>
							vPortFree( pxTimer );
 80024ee:	4620      	mov	r0, r4
 80024f0:	f000 fb24 	bl	8002b3c <vPortFree>
 80024f4:	e7cc      	b.n	8002490 <prvTimerTask+0x5c>
	vTaskSuspendAll();
 80024f6:	f7ff fc35 	bl	8001d64 <vTaskSuspendAll>
	xTimeNow = xTaskGetTickCount();
 80024fa:	f7ff fc3b 	bl	8001d74 <xTaskGetTickCount>
	if( xTimeNow < xLastTime )
 80024fe:	6832      	ldr	r2, [r6, #0]
	xTimeNow = xTaskGetTickCount();
 8002500:	4683      	mov	fp, r0
	if( xTimeNow < xLastTime )
 8002502:	4282      	cmp	r2, r0
 8002504:	d808      	bhi.n	8002518 <prvTimerTask+0xe4>
					xListWasEmpty = listLIST_IS_EMPTY( pxOverflowTimerList );
 8002506:	f8d9 2000 	ldr.w	r2, [r9]
	xLastTime = xTimeNow;
 800250a:	f8c6 b000 	str.w	fp, [r6]
					xListWasEmpty = listLIST_IS_EMPTY( pxOverflowTimerList );
 800250e:	6812      	ldr	r2, [r2, #0]
 8002510:	fab2 f282 	clz	r2, r2
 8002514:	0952      	lsrs	r2, r2, #5
 8002516:	e7a9      	b.n	800246c <prvTimerTask+0x38>
		prvSwitchTimerLists();
 8002518:	f7ff ff42 	bl	80023a0 <prvSwitchTimerLists>
	xLastTime = xTimeNow;
 800251c:	f8c6 b000 	str.w	fp, [r6]
			( void ) xTaskResumeAll();
 8002520:	f7ff fcd2 	bl	8001ec8 <xTaskResumeAll>
 8002524:	e7b2      	b.n	800248c <prvTimerTask+0x58>
 8002526:	9001      	str	r0, [sp, #4]
		prvSwitchTimerLists();
 8002528:	f7ff ff3a 	bl	80023a0 <prvSwitchTimerLists>
 800252c:	9801      	ldr	r0, [sp, #4]
 800252e:	e7cc      	b.n	80024ca <prvTimerTask+0x96>
					pxTimer->xTimerPeriodInTicks = xMessage.u.xTimerParameters.xMessageValue;
 8002530:	9b03      	ldr	r3, [sp, #12]
 8002532:	61a3      	str	r3, [r4, #24]
					configASSERT( ( pxTimer->xTimerPeriodInTicks > 0 ) );
 8002534:	2b00      	cmp	r3, #0
 8002536:	d064      	beq.n	8002602 <prvTimerTask+0x1ce>
					( void ) prvInsertTimerInActiveList( pxTimer, ( xTimeNow + pxTimer->xTimerPeriodInTicks ), xTimeNow, xTimeNow );
 8002538:	4403      	add	r3, r0
	if( xNextExpiryTime <= xTimeNow )
 800253a:	4283      	cmp	r3, r0
	listSET_LIST_ITEM_VALUE( &( pxTimer->xTimerListItem ), xNextExpiryTime );
 800253c:	6063      	str	r3, [r4, #4]
	listSET_LIST_ITEM_OWNER( &( pxTimer->xTimerListItem ), pxTimer );
 800253e:	6124      	str	r4, [r4, #16]
 8002540:	f104 0104 	add.w	r1, r4, #4
			vListInsert( pxOverflowTimerList, &( pxTimer->xTimerListItem ) );
 8002544:	bf94      	ite	ls
 8002546:	f8d9 0000 	ldrls.w	r0, [r9]
			vListInsert( pxCurrentTimerList, &( pxTimer->xTimerListItem ) );
 800254a:	6838      	ldrhi	r0, [r7, #0]
 800254c:	f7fe fcd8 	bl	8000f00 <vListInsert>
 8002550:	e79e      	b.n	8002490 <prvTimerTask+0x5c>
				( void ) xTaskResumeAll();
 8002552:	f7ff fcb9 	bl	8001ec8 <xTaskResumeAll>
Timer_t * const pxTimer = ( Timer_t * ) listGET_OWNER_OF_HEAD_ENTRY( pxCurrentTimerList );
 8002556:	683a      	ldr	r2, [r7, #0]
 8002558:	68d2      	ldr	r2, [r2, #12]
 800255a:	f8d2 800c 	ldr.w	r8, [r2, #12]
	( void ) uxListRemove( &( pxTimer->xTimerListItem ) );
 800255e:	f108 0104 	add.w	r1, r8, #4
 8002562:	4608      	mov	r0, r1
 8002564:	9101      	str	r1, [sp, #4]
 8002566:	f7fe fce5 	bl	8000f34 <uxListRemove>
	if( pxTimer->uxAutoReload == ( UBaseType_t ) pdTRUE )
 800256a:	f8d8 201c 	ldr.w	r2, [r8, #28]
 800256e:	9901      	ldr	r1, [sp, #4]
 8002570:	2a01      	cmp	r2, #1
 8002572:	d04f      	beq.n	8002614 <prvTimerTask+0x1e0>
	pxTimer->pxCallbackFunction( ( TimerHandle_t ) pxTimer );
 8002574:	f8d8 3024 	ldr.w	r3, [r8, #36]	; 0x24
 8002578:	4640      	mov	r0, r8
 800257a:	4798      	blx	r3
 800257c:	e786      	b.n	800248c <prvTimerTask+0x58>
					if( prvInsertTimerInActiveList( pxTimer,  xMessage.u.xTimerParameters.xMessageValue + pxTimer->xTimerPeriodInTicks, xTimeNow, xMessage.u.xTimerParameters.xMessageValue ) != pdFALSE )
 800257e:	9b03      	ldr	r3, [sp, #12]
 8002580:	69a2      	ldr	r2, [r4, #24]
	listSET_LIST_ITEM_OWNER( &( pxTimer->xTimerListItem ), pxTimer );
 8002582:	6124      	str	r4, [r4, #16]
 8002584:	1899      	adds	r1, r3, r2
 8002586:	bf2c      	ite	cs
 8002588:	f04f 0c01 	movcs.w	ip, #1
 800258c:	f04f 0c00 	movcc.w	ip, #0
	if( xNextExpiryTime <= xTimeNow )
 8002590:	4281      	cmp	r1, r0
	listSET_LIST_ITEM_VALUE( &( pxTimer->xTimerListItem ), xNextExpiryTime );
 8002592:	6061      	str	r1, [r4, #4]
	if( xNextExpiryTime <= xTimeNow )
 8002594:	d825      	bhi.n	80025e2 <prvTimerTask+0x1ae>
		if( ( ( TickType_t ) ( xTimeNow - xCommandTime ) ) >= pxTimer->xTimerPeriodInTicks ) /*lint !e961 MISRA exception as the casts are only redundant for some ports. */
 8002596:	1ac3      	subs	r3, r0, r3
 8002598:	429a      	cmp	r2, r3
 800259a:	d82c      	bhi.n	80025f6 <prvTimerTask+0x1c2>
						pxTimer->pxCallbackFunction( ( TimerHandle_t ) pxTimer );
 800259c:	6a63      	ldr	r3, [r4, #36]	; 0x24
 800259e:	4620      	mov	r0, r4
 80025a0:	4798      	blx	r3
						if( pxTimer->uxAutoReload == ( UBaseType_t ) pdTRUE )
 80025a2:	69e3      	ldr	r3, [r4, #28]
 80025a4:	2b01      	cmp	r3, #1
 80025a6:	f47f af73 	bne.w	8002490 <prvTimerTask+0x5c>
							xResult = xTimerGenericCommand( pxTimer, tmrCOMMAND_START_DONT_TRACE, xMessage.u.xTimerParameters.xMessageValue + pxTimer->xTimerPeriodInTicks, NULL, tmrNO_DELAY );
 80025aa:	9b03      	ldr	r3, [sp, #12]
 80025ac:	69a1      	ldr	r1, [r4, #24]
	if( xTimerQueue != NULL )
 80025ae:	682a      	ldr	r2, [r5, #0]
							xResult = xTimerGenericCommand( pxTimer, tmrCOMMAND_START_DONT_TRACE, xMessage.u.xTimerParameters.xMessageValue + pxTimer->xTimerPeriodInTicks, NULL, tmrNO_DELAY );
 80025b0:	440b      	add	r3, r1
	if( xTimerQueue != NULL )
 80025b2:	b16a      	cbz	r2, 80025d0 <prvTimerTask+0x19c>
		xMessage.u.xTimerParameters.xMessageValue = xOptionalValue;
 80025b4:	e9cd 8306 	strd	r8, r3, [sp, #24]
		xMessage.u.xTimerParameters.pxTimer = ( Timer_t * ) xTimer;
 80025b8:	9408      	str	r4, [sp, #32]
			if( xTaskGetSchedulerState() == taskSCHEDULER_RUNNING )
 80025ba:	f7ff fe9f 	bl	80022fc <xTaskGetSchedulerState>
				xReturn = xQueueSendToBack( xTimerQueue, &xMessage, xTicksToWait );
 80025be:	2300      	movs	r3, #0
 80025c0:	a906      	add	r1, sp, #24
 80025c2:	461a      	mov	r2, r3
 80025c4:	6828      	ldr	r0, [r5, #0]
 80025c6:	f7fe fd61 	bl	800108c <xQueueGenericSend>
							configASSERT( xResult );
 80025ca:	2800      	cmp	r0, #0
 80025cc:	f47f af60 	bne.w	8002490 <prvTimerTask+0x5c>
 80025d0:	f04f 0350 	mov.w	r3, #80	; 0x50
 80025d4:	f383 8811 	msr	BASEPRI, r3
 80025d8:	f3bf 8f6f 	isb	sy
 80025dc:	f3bf 8f4f 	dsb	sy
 80025e0:	e7fe      	b.n	80025e0 <prvTimerTask+0x1ac>
		if( ( xTimeNow < xCommandTime ) && ( xNextExpiryTime >= xCommandTime ) )
 80025e2:	4283      	cmp	r3, r0
 80025e4:	d902      	bls.n	80025ec <prvTimerTask+0x1b8>
 80025e6:	f1bc 0f00 	cmp.w	ip, #0
 80025ea:	d0d7      	beq.n	800259c <prvTimerTask+0x168>
			vListInsert( pxCurrentTimerList, &( pxTimer->xTimerListItem ) );
 80025ec:	1d21      	adds	r1, r4, #4
 80025ee:	6838      	ldr	r0, [r7, #0]
 80025f0:	f7fe fc86 	bl	8000f00 <vListInsert>
 80025f4:	e74c      	b.n	8002490 <prvTimerTask+0x5c>
			vListInsert( pxOverflowTimerList, &( pxTimer->xTimerListItem ) );
 80025f6:	1d21      	adds	r1, r4, #4
 80025f8:	f8d9 0000 	ldr.w	r0, [r9]
 80025fc:	f7fe fc80 	bl	8000f00 <vListInsert>
 8002600:	e746      	b.n	8002490 <prvTimerTask+0x5c>
 8002602:	f04f 0350 	mov.w	r3, #80	; 0x50
 8002606:	f383 8811 	msr	BASEPRI, r3
 800260a:	f3bf 8f6f 	isb	sy
 800260e:	f3bf 8f4f 	dsb	sy
 8002612:	e7fe      	b.n	8002612 <prvTimerTask+0x1de>
		if( prvInsertTimerInActiveList( pxTimer, ( xNextExpireTime + pxTimer->xTimerPeriodInTicks ), xTimeNow, xNextExpireTime ) != pdFALSE )
 8002614:	f8d8 2018 	ldr.w	r2, [r8, #24]
	listSET_LIST_ITEM_OWNER( &( pxTimer->xTimerListItem ), pxTimer );
 8002618:	f8c8 8010 	str.w	r8, [r8, #16]
		if( prvInsertTimerInActiveList( pxTimer, ( xNextExpireTime + pxTimer->xTimerPeriodInTicks ), xTimeNow, xNextExpireTime ) != pdFALSE )
 800261c:	18a0      	adds	r0, r4, r2
	if( xNextExpiryTime <= xTimeNow )
 800261e:	4583      	cmp	fp, r0
	listSET_LIST_ITEM_VALUE( &( pxTimer->xTimerListItem ), xNextExpiryTime );
 8002620:	f8c8 0004 	str.w	r0, [r8, #4]
	if( xNextExpiryTime <= xTimeNow )
 8002624:	d323      	bcc.n	800266e <prvTimerTask+0x23a>
		if( ( ( TickType_t ) ( xTimeNow - xCommandTime ) ) >= pxTimer->xTimerPeriodInTicks ) /*lint !e961 MISRA exception as the casts are only redundant for some ports. */
 8002626:	ebab 0304 	sub.w	r3, fp, r4
 800262a:	429a      	cmp	r2, r3
 800262c:	d81a      	bhi.n	8002664 <prvTimerTask+0x230>
	if( xTimerQueue != NULL )
 800262e:	682b      	ldr	r3, [r5, #0]
 8002630:	b17b      	cbz	r3, 8002652 <prvTimerTask+0x21e>
		xMessage.xMessageID = xCommandID;
 8002632:	f04f 0b00 	mov.w	fp, #0
		xMessage.u.xTimerParameters.pxTimer = ( Timer_t * ) xTimer;
 8002636:	e9cd 4807 	strd	r4, r8, [sp, #28]
		xMessage.xMessageID = xCommandID;
 800263a:	f8cd b018 	str.w	fp, [sp, #24]
			if( xTaskGetSchedulerState() == taskSCHEDULER_RUNNING )
 800263e:	f7ff fe5d 	bl	80022fc <xTaskGetSchedulerState>
				xReturn = xQueueSendToBack( xTimerQueue, &xMessage, xTicksToWait );
 8002642:	465b      	mov	r3, fp
 8002644:	465a      	mov	r2, fp
 8002646:	a906      	add	r1, sp, #24
 8002648:	6828      	ldr	r0, [r5, #0]
 800264a:	f7fe fd1f 	bl	800108c <xQueueGenericSend>
			configASSERT( xResult );
 800264e:	2800      	cmp	r0, #0
 8002650:	d190      	bne.n	8002574 <prvTimerTask+0x140>
 8002652:	f04f 0350 	mov.w	r3, #80	; 0x50
 8002656:	f383 8811 	msr	BASEPRI, r3
 800265a:	f3bf 8f6f 	isb	sy
 800265e:	f3bf 8f4f 	dsb	sy
 8002662:	e7fe      	b.n	8002662 <prvTimerTask+0x22e>
			vListInsert( pxOverflowTimerList, &( pxTimer->xTimerListItem ) );
 8002664:	f8d9 0000 	ldr.w	r0, [r9]
 8002668:	f7fe fc4a 	bl	8000f00 <vListInsert>
 800266c:	e782      	b.n	8002574 <prvTimerTask+0x140>
			vListInsert( pxCurrentTimerList, &( pxTimer->xTimerListItem ) );
 800266e:	6838      	ldr	r0, [r7, #0]
 8002670:	f7fe fc46 	bl	8000f00 <vListInsert>
 8002674:	e77e      	b.n	8002574 <prvTimerTask+0x140>
 8002676:	bf00      	nop
 8002678:	20000be8 	.word	0x20000be8
 800267c:	20000cb8 	.word	0x20000cb8
 8002680:	20000d0c 	.word	0x20000d0c
 8002684:	e000ed04 	.word	0xe000ed04
 8002688:	20000bec 	.word	0x20000bec

0800268c <xTimerCreateTimerTask>:
{
 800268c:	b5f0      	push	{r4, r5, r6, r7, lr}
	/* Check that the list from which active timers are referenced, and the
	queue used to communicate with the timer service, have been
	initialised. */
	taskENTER_CRITICAL();
	{
		if( xTimerQueue == NULL )
 800268e:	4c23      	ldr	r4, [pc, #140]	; (800271c <xTimerCreateTimerTask+0x90>)
{
 8002690:	b089      	sub	sp, #36	; 0x24
	taskENTER_CRITICAL();
 8002692:	f000 f8af 	bl	80027f4 <vPortEnterCritical>
		if( xTimerQueue == NULL )
 8002696:	6827      	ldr	r7, [r4, #0]
 8002698:	b32f      	cbz	r7, 80026e6 <xTimerCreateTimerTask+0x5a>
		else
		{
			mtCOVERAGE_TEST_MARKER();
		}
	}
	taskEXIT_CRITICAL();
 800269a:	f000 f8cd 	bl	8002838 <vPortExitCritical>
	if( xTimerQueue != NULL )
 800269e:	6823      	ldr	r3, [r4, #0]
 80026a0:	b1c3      	cbz	r3, 80026d4 <xTimerCreateTimerTask+0x48>
			StaticTask_t *pxTimerTaskTCBBuffer = NULL;
 80026a2:	2400      	movs	r4, #0
			xTimerTaskHandle = xTaskCreateStatic(	prvTimerTask,
 80026a4:	2502      	movs	r5, #2
			vApplicationGetTimerTaskMemory( &pxTimerTaskTCBBuffer, &pxTimerTaskStackBuffer, &ulTimerTaskStackSize );
 80026a6:	aa07      	add	r2, sp, #28
 80026a8:	a906      	add	r1, sp, #24
 80026aa:	a805      	add	r0, sp, #20
			StackType_t *pxTimerTaskStackBuffer = NULL;
 80026ac:	e9cd 4405 	strd	r4, r4, [sp, #20]
			vApplicationGetTimerTaskMemory( &pxTimerTaskTCBBuffer, &pxTimerTaskStackBuffer, &ulTimerTaskStackSize );
 80026b0:	f7fe fbfa 	bl	8000ea8 <vApplicationGetTimerTaskMemory>
			xTimerTaskHandle = xTaskCreateStatic(	prvTimerTask,
 80026b4:	a805      	add	r0, sp, #20
 80026b6:	c807      	ldmia	r0, {r0, r1, r2}
 80026b8:	4623      	mov	r3, r4
 80026ba:	e9cd 1001 	strd	r1, r0, [sp, #4]
 80026be:	9500      	str	r5, [sp, #0]
 80026c0:	4917      	ldr	r1, [pc, #92]	; (8002720 <xTimerCreateTimerTask+0x94>)
 80026c2:	4818      	ldr	r0, [pc, #96]	; (8002724 <xTimerCreateTimerTask+0x98>)
 80026c4:	f7ff f9fc 	bl	8001ac0 <xTaskCreateStatic>
 80026c8:	4b17      	ldr	r3, [pc, #92]	; (8002728 <xTimerCreateTimerTask+0x9c>)
 80026ca:	6018      	str	r0, [r3, #0]
			if( xTimerTaskHandle != NULL )
 80026cc:	b110      	cbz	r0, 80026d4 <xTimerCreateTimerTask+0x48>
}
 80026ce:	2001      	movs	r0, #1
 80026d0:	b009      	add	sp, #36	; 0x24
 80026d2:	bdf0      	pop	{r4, r5, r6, r7, pc}
 80026d4:	f04f 0350 	mov.w	r3, #80	; 0x50
 80026d8:	f383 8811 	msr	BASEPRI, r3
 80026dc:	f3bf 8f6f 	isb	sy
 80026e0:	f3bf 8f4f 	dsb	sy
 80026e4:	e7fe      	b.n	80026e4 <xTimerCreateTimerTask+0x58>
			vListInitialise( &xActiveTimerList1 );
 80026e6:	4e11      	ldr	r6, [pc, #68]	; (800272c <xTimerCreateTimerTask+0xa0>)
			vListInitialise( &xActiveTimerList2 );
 80026e8:	4d11      	ldr	r5, [pc, #68]	; (8002730 <xTimerCreateTimerTask+0xa4>)
			vListInitialise( &xActiveTimerList1 );
 80026ea:	4630      	mov	r0, r6
 80026ec:	f7fe fbea 	bl	8000ec4 <vListInitialise>
			vListInitialise( &xActiveTimerList2 );
 80026f0:	4628      	mov	r0, r5
 80026f2:	f7fe fbe7 	bl	8000ec4 <vListInitialise>
			pxCurrentTimerList = &xActiveTimerList1;
 80026f6:	4a0f      	ldr	r2, [pc, #60]	; (8002734 <xTimerCreateTimerTask+0xa8>)
			pxOverflowTimerList = &xActiveTimerList2;
 80026f8:	480f      	ldr	r0, [pc, #60]	; (8002738 <xTimerCreateTimerTask+0xac>)
				xTimerQueue = xQueueCreateStatic( ( UBaseType_t ) configTIMER_QUEUE_LENGTH, ( UBaseType_t ) sizeof( DaemonTaskMessage_t ), &( ucStaticTimerQueueStorage[ 0 ] ), &xStaticTimerQueue );
 80026fa:	9700      	str	r7, [sp, #0]
 80026fc:	4b0f      	ldr	r3, [pc, #60]	; (800273c <xTimerCreateTimerTask+0xb0>)
			pxCurrentTimerList = &xActiveTimerList1;
 80026fe:	6016      	str	r6, [r2, #0]
			pxOverflowTimerList = &xActiveTimerList2;
 8002700:	6005      	str	r5, [r0, #0]
				xTimerQueue = xQueueCreateStatic( ( UBaseType_t ) configTIMER_QUEUE_LENGTH, ( UBaseType_t ) sizeof( DaemonTaskMessage_t ), &( ucStaticTimerQueueStorage[ 0 ] ), &xStaticTimerQueue );
 8002702:	4a0f      	ldr	r2, [pc, #60]	; (8002740 <xTimerCreateTimerTask+0xb4>)
 8002704:	2110      	movs	r1, #16
 8002706:	200a      	movs	r0, #10
 8002708:	f7fe fc6a 	bl	8000fe0 <xQueueGenericCreateStatic>
 800270c:	6020      	str	r0, [r4, #0]
				if( xTimerQueue != NULL )
 800270e:	2800      	cmp	r0, #0
 8002710:	d0c3      	beq.n	800269a <xTimerCreateTimerTask+0xe>
					vQueueAddToRegistry( xTimerQueue, "TmrQ" );
 8002712:	490c      	ldr	r1, [pc, #48]	; (8002744 <xTimerCreateTimerTask+0xb8>)
 8002714:	f7fe ffea 	bl	80016ec <vQueueAddToRegistry>
 8002718:	e7bf      	b.n	800269a <xTimerCreateTimerTask+0xe>
 800271a:	bf00      	nop
 800271c:	20000d0c 	.word	0x20000d0c
 8002720:	08002cf4 	.word	0x08002cf4
 8002724:	08002435 	.word	0x08002435
 8002728:	20000d10 	.word	0x20000d10
 800272c:	20000c90 	.word	0x20000c90
 8002730:	20000ca4 	.word	0x20000ca4
 8002734:	20000be8 	.word	0x20000be8
 8002738:	20000bec 	.word	0x20000bec
 800273c:	20000cbc 	.word	0x20000cbc
 8002740:	20000bf0 	.word	0x20000bf0
 8002744:	08002cec 	.word	0x08002cec

08002748 <prvTaskExitError>:
}
/*-----------------------------------------------------------*/

static void prvTaskExitError( void )
{
volatile uint32_t ulDummy = 0UL;
 8002748:	2200      	movs	r2, #0
	its caller as there is nothing to return to.  If a task wants to exit it
	should instead call vTaskDelete( NULL ).

	Artificially force an assert() to be triggered if configASSERT() is
	defined, then stop here so application writers can catch the error. */
	configASSERT( uxCriticalNesting == ~0UL );
 800274a:	4b0e      	ldr	r3, [pc, #56]	; (8002784 <prvTaskExitError+0x3c>)
{
 800274c:	b082      	sub	sp, #8
	configASSERT( uxCriticalNesting == ~0UL );
 800274e:	681b      	ldr	r3, [r3, #0]
volatile uint32_t ulDummy = 0UL;
 8002750:	9201      	str	r2, [sp, #4]
	configASSERT( uxCriticalNesting == ~0UL );
 8002752:	3301      	adds	r3, #1
 8002754:	d008      	beq.n	8002768 <prvTaskExitError+0x20>
 8002756:	f04f 0350 	mov.w	r3, #80	; 0x50
 800275a:	f383 8811 	msr	BASEPRI, r3
 800275e:	f3bf 8f6f 	isb	sy
 8002762:	f3bf 8f4f 	dsb	sy
 8002766:	e7fe      	b.n	8002766 <prvTaskExitError+0x1e>
 8002768:	f04f 0350 	mov.w	r3, #80	; 0x50
 800276c:	f383 8811 	msr	BASEPRI, r3
 8002770:	f3bf 8f6f 	isb	sy
 8002774:	f3bf 8f4f 	dsb	sy
	portDISABLE_INTERRUPTS();
	while( ulDummy == 0 )
 8002778:	9b01      	ldr	r3, [sp, #4]
 800277a:	2b00      	cmp	r3, #0
 800277c:	d0fc      	beq.n	8002778 <prvTaskExitError+0x30>
		about code appearing after this function is called - making ulDummy
		volatile makes the compiler think the function could return and
		therefore not output an 'unreachable code' warning for code that appears
		after it. */
	}
}
 800277e:	b002      	add	sp, #8
 8002780:	4770      	bx	lr
 8002782:	bf00      	nop
 8002784:	2000000c 	.word	0x2000000c

08002788 <prvPortStartFirstTask>:
}
/*-----------------------------------------------------------*/

static void prvPortStartFirstTask( void )
{
	__asm volatile(
 8002788:	4806      	ldr	r0, [pc, #24]	; (80027a4 <prvPortStartFirstTask+0x1c>)
 800278a:	6800      	ldr	r0, [r0, #0]
 800278c:	6800      	ldr	r0, [r0, #0]
 800278e:	f380 8808 	msr	MSP, r0
 8002792:	b662      	cpsie	i
 8002794:	b661      	cpsie	f
 8002796:	f3bf 8f4f 	dsb	sy
 800279a:	f3bf 8f6f 	isb	sy
 800279e:	df00      	svc	0
 80027a0:	bf00      	nop
 80027a2:	0000      	.short	0x0000
 80027a4:	e000ed08 	.word	0xe000ed08

080027a8 <pxPortInitialiseStack>:
{
 80027a8:	b410      	push	{r4}
	*pxTopOfStack = portINITIAL_XPSR;	/* xPSR */
 80027aa:	f04f 7480 	mov.w	r4, #16777216	; 0x1000000
	*pxTopOfStack = ( StackType_t ) portTASK_RETURN_ADDRESS;	/* LR */
 80027ae:	4b06      	ldr	r3, [pc, #24]	; (80027c8 <pxPortInitialiseStack+0x20>)
	*pxTopOfStack = ( ( StackType_t ) pxCode ) & portSTART_ADDRESS_MASK;	/* PC */
 80027b0:	f021 0101 	bic.w	r1, r1, #1
	*pxTopOfStack = ( StackType_t ) pvParameters;	/* R0 */
 80027b4:	f840 2c20 	str.w	r2, [r0, #-32]
	*pxTopOfStack = portINITIAL_XPSR;	/* xPSR */
 80027b8:	e940 1402 	strd	r1, r4, [r0, #-8]
	*pxTopOfStack = ( StackType_t ) portTASK_RETURN_ADDRESS;	/* LR */
 80027bc:	f840 3c0c 	str.w	r3, [r0, #-12]
}
 80027c0:	bc10      	pop	{r4}
 80027c2:	3840      	subs	r0, #64	; 0x40
 80027c4:	4770      	bx	lr
 80027c6:	bf00      	nop
 80027c8:	08002749 	.word	0x08002749
 80027cc:	00000000 	.word	0x00000000

080027d0 <SVC_Handler>:
	__asm volatile (
 80027d0:	4b07      	ldr	r3, [pc, #28]	; (80027f0 <pxCurrentTCBConst2>)
 80027d2:	6819      	ldr	r1, [r3, #0]
 80027d4:	6808      	ldr	r0, [r1, #0]
 80027d6:	e8b0 0ff0 	ldmia.w	r0!, {r4, r5, r6, r7, r8, r9, sl, fp}
 80027da:	f380 8809 	msr	PSP, r0
 80027de:	f3bf 8f6f 	isb	sy
 80027e2:	f04f 0000 	mov.w	r0, #0
 80027e6:	f380 8811 	msr	BASEPRI, r0
 80027ea:	f04e 0e0d 	orr.w	lr, lr, #13
 80027ee:	4770      	bx	lr

080027f0 <pxCurrentTCBConst2>:
 80027f0:	200006ec 	.word	0x200006ec

080027f4 <vPortEnterCritical>:
 80027f4:	f04f 0350 	mov.w	r3, #80	; 0x50
 80027f8:	f383 8811 	msr	BASEPRI, r3
 80027fc:	f3bf 8f6f 	isb	sy
 8002800:	f3bf 8f4f 	dsb	sy
/*-----------------------------------------------------------*/

void vPortEnterCritical( void )
{
	portDISABLE_INTERRUPTS();
	uxCriticalNesting++;
 8002804:	4a0a      	ldr	r2, [pc, #40]	; (8002830 <vPortEnterCritical+0x3c>)
 8002806:	6813      	ldr	r3, [r2, #0]
 8002808:	3301      	adds	r3, #1
	/* This is not the interrupt safe version of the enter critical function so
	assert() if it is being called from an interrupt context.  Only API
	functions that end in "FromISR" can be used in an interrupt.  Only assert if
	the critical nesting count is 1 to protect against recursive calls if the
	assert function also uses a critical section. */
	if( uxCriticalNesting == 1 )
 800280a:	2b01      	cmp	r3, #1
	uxCriticalNesting++;
 800280c:	6013      	str	r3, [r2, #0]
	if( uxCriticalNesting == 1 )
 800280e:	d000      	beq.n	8002812 <vPortEnterCritical+0x1e>
	{
		configASSERT( ( portNVIC_INT_CTRL_REG & portVECTACTIVE_MASK ) == 0 );
	}
}
 8002810:	4770      	bx	lr
		configASSERT( ( portNVIC_INT_CTRL_REG & portVECTACTIVE_MASK ) == 0 );
 8002812:	4b08      	ldr	r3, [pc, #32]	; (8002834 <vPortEnterCritical+0x40>)
 8002814:	681b      	ldr	r3, [r3, #0]
 8002816:	f013 0fff 	tst.w	r3, #255	; 0xff
 800281a:	d0f9      	beq.n	8002810 <vPortEnterCritical+0x1c>
 800281c:	f04f 0350 	mov.w	r3, #80	; 0x50
 8002820:	f383 8811 	msr	BASEPRI, r3
 8002824:	f3bf 8f6f 	isb	sy
 8002828:	f3bf 8f4f 	dsb	sy
 800282c:	e7fe      	b.n	800282c <vPortEnterCritical+0x38>
 800282e:	bf00      	nop
 8002830:	2000000c 	.word	0x2000000c
 8002834:	e000ed04 	.word	0xe000ed04

08002838 <vPortExitCritical>:
/*-----------------------------------------------------------*/

void vPortExitCritical( void )
{
	configASSERT( uxCriticalNesting );
 8002838:	4a08      	ldr	r2, [pc, #32]	; (800285c <vPortExitCritical+0x24>)
 800283a:	6813      	ldr	r3, [r2, #0]
 800283c:	b943      	cbnz	r3, 8002850 <vPortExitCritical+0x18>
 800283e:	f04f 0350 	mov.w	r3, #80	; 0x50
 8002842:	f383 8811 	msr	BASEPRI, r3
 8002846:	f3bf 8f6f 	isb	sy
 800284a:	f3bf 8f4f 	dsb	sy
 800284e:	e7fe      	b.n	800284e <vPortExitCritical+0x16>
	uxCriticalNesting--;
 8002850:	3b01      	subs	r3, #1
 8002852:	6013      	str	r3, [r2, #0]
	if( uxCriticalNesting == 0 )
 8002854:	b90b      	cbnz	r3, 800285a <vPortExitCritical+0x22>
}
/*-----------------------------------------------------------*/

portFORCE_INLINE static void vPortSetBASEPRI( uint32_t ulNewMaskValue )
{
	__asm volatile
 8002856:	f383 8811 	msr	BASEPRI, r3
	{
		portENABLE_INTERRUPTS();
	}
}
 800285a:	4770      	bx	lr
 800285c:	2000000c 	.word	0x2000000c

08002860 <PendSV_Handler>:

void xPortPendSVHandler( void )
{
	/* This is a naked function. */

	__asm volatile
 8002860:	f3ef 8009 	mrs	r0, PSP
 8002864:	f3bf 8f6f 	isb	sy
 8002868:	4b0d      	ldr	r3, [pc, #52]	; (80028a0 <pxCurrentTCBConst>)
 800286a:	681a      	ldr	r2, [r3, #0]
 800286c:	e920 0ff0 	stmdb	r0!, {r4, r5, r6, r7, r8, r9, sl, fp}
 8002870:	6010      	str	r0, [r2, #0]
 8002872:	e92d 4008 	stmdb	sp!, {r3, lr}
 8002876:	f04f 0050 	mov.w	r0, #80	; 0x50
 800287a:	f380 8811 	msr	BASEPRI, r0
 800287e:	f7ff fbcd 	bl	800201c <vTaskSwitchContext>
 8002882:	f04f 0000 	mov.w	r0, #0
 8002886:	f380 8811 	msr	BASEPRI, r0
 800288a:	e8bd 4008 	ldmia.w	sp!, {r3, lr}
 800288e:	6819      	ldr	r1, [r3, #0]
 8002890:	6808      	ldr	r0, [r1, #0]
 8002892:	e8b0 0ff0 	ldmia.w	r0!, {r4, r5, r6, r7, r8, r9, sl, fp}
 8002896:	f380 8809 	msr	PSP, r0
 800289a:	f3bf 8f6f 	isb	sy
 800289e:	4770      	bx	lr

080028a0 <pxCurrentTCBConst>:
 80028a0:	200006ec 	.word	0x200006ec

080028a4 <xPortSysTickHandler>:
	);
}
/*-----------------------------------------------------------*/

void xPortSysTickHandler( void )
{
 80028a4:	b508      	push	{r3, lr}
	__asm volatile
 80028a6:	f04f 0350 	mov.w	r3, #80	; 0x50
 80028aa:	f383 8811 	msr	BASEPRI, r3
 80028ae:	f3bf 8f6f 	isb	sy
 80028b2:	f3bf 8f4f 	dsb	sy
	save and then restore the interrupt mask value as its value is already
	known. */
	portDISABLE_INTERRUPTS();
	{
		/* Increment the RTOS tick. */
		if( xTaskIncrementTick() != pdFALSE )
 80028b6:	f7ff fa63 	bl	8001d80 <xTaskIncrementTick>
 80028ba:	b118      	cbz	r0, 80028c4 <xPortSysTickHandler+0x20>
		{
			/* A context switch is required.  Context switching is performed in
			the PendSV interrupt.  Pend the PendSV interrupt. */
			portNVIC_INT_CTRL_REG = portNVIC_PENDSVSET_BIT;
 80028bc:	f04f 5280 	mov.w	r2, #268435456	; 0x10000000
 80028c0:	4b02      	ldr	r3, [pc, #8]	; (80028cc <xPortSysTickHandler+0x28>)
 80028c2:	601a      	str	r2, [r3, #0]
	__asm volatile
 80028c4:	2300      	movs	r3, #0
 80028c6:	f383 8811 	msr	BASEPRI, r3
		}
	}
	portENABLE_INTERRUPTS();
}
 80028ca:	bd08      	pop	{r3, pc}
 80028cc:	e000ed04 	.word	0xe000ed04

080028d0 <vPortSetupTimerInterrupt>:
		ulStoppedTimerCompensation = portMISSED_COUNTS_FACTOR / ( configCPU_CLOCK_HZ / configSYSTICK_CLOCK_HZ );
	}
	#endif /* configUSE_TICKLESS_IDLE */

	/* Stop and clear the SysTick. */
	portNVIC_SYSTICK_CTRL_REG = 0UL;
 80028d0:	2300      	movs	r3, #0
	portNVIC_SYSTICK_CURRENT_VALUE_REG = 0UL;

	/* Configure SysTick to interrupt at the requested rate. */
	portNVIC_SYSTICK_LOAD_REG = ( configSYSTICK_CLOCK_HZ / configTICK_RATE_HZ ) - 1UL;
	portNVIC_SYSTICK_CTRL_REG = ( portNVIC_SYSTICK_CLK_BIT | portNVIC_SYSTICK_INT_BIT | portNVIC_SYSTICK_ENABLE_BIT );
 80028d2:	2107      	movs	r1, #7
{
 80028d4:	b410      	push	{r4}
	portNVIC_SYSTICK_CTRL_REG = 0UL;
 80028d6:	4a08      	ldr	r2, [pc, #32]	; (80028f8 <vPortSetupTimerInterrupt+0x28>)
	portNVIC_SYSTICK_CURRENT_VALUE_REG = 0UL;
 80028d8:	4c08      	ldr	r4, [pc, #32]	; (80028fc <vPortSetupTimerInterrupt+0x2c>)
	portNVIC_SYSTICK_LOAD_REG = ( configSYSTICK_CLOCK_HZ / configTICK_RATE_HZ ) - 1UL;
 80028da:	4809      	ldr	r0, [pc, #36]	; (8002900 <vPortSetupTimerInterrupt+0x30>)
	portNVIC_SYSTICK_CTRL_REG = 0UL;
 80028dc:	6013      	str	r3, [r2, #0]
	portNVIC_SYSTICK_CURRENT_VALUE_REG = 0UL;
 80028de:	6023      	str	r3, [r4, #0]
	portNVIC_SYSTICK_LOAD_REG = ( configSYSTICK_CLOCK_HZ / configTICK_RATE_HZ ) - 1UL;
 80028e0:	6803      	ldr	r3, [r0, #0]
 80028e2:	4c08      	ldr	r4, [pc, #32]	; (8002904 <vPortSetupTimerInterrupt+0x34>)
 80028e4:	4808      	ldr	r0, [pc, #32]	; (8002908 <vPortSetupTimerInterrupt+0x38>)
 80028e6:	fba4 4303 	umull	r4, r3, r4, r3
 80028ea:	099b      	lsrs	r3, r3, #6
 80028ec:	3b01      	subs	r3, #1
 80028ee:	6003      	str	r3, [r0, #0]
}
 80028f0:	bc10      	pop	{r4}
	portNVIC_SYSTICK_CTRL_REG = ( portNVIC_SYSTICK_CLK_BIT | portNVIC_SYSTICK_INT_BIT | portNVIC_SYSTICK_ENABLE_BIT );
 80028f2:	6011      	str	r1, [r2, #0]
}
 80028f4:	4770      	bx	lr
 80028f6:	bf00      	nop
 80028f8:	e000e010 	.word	0xe000e010
 80028fc:	e000e018 	.word	0xe000e018
 8002900:	20000000 	.word	0x20000000
 8002904:	10624dd3 	.word	0x10624dd3
 8002908:	e000e014 	.word	0xe000e014

0800290c <xPortStartScheduler>:
{
 800290c:	b530      	push	{r4, r5, lr}
		*pucFirstUserPriorityRegister = portMAX_8_BIT_VALUE;
 800290e:	25ff      	movs	r5, #255	; 0xff
		ulMaxPRIGROUPValue = portMAX_PRIGROUP_BITS;
 8002910:	2407      	movs	r4, #7
		ulOriginalPriority = *pucFirstUserPriorityRegister;
 8002912:	4b27      	ldr	r3, [pc, #156]	; (80029b0 <xPortStartScheduler+0xa4>)
{
 8002914:	b083      	sub	sp, #12
		ulOriginalPriority = *pucFirstUserPriorityRegister;
 8002916:	781a      	ldrb	r2, [r3, #0]
		ucMaxSysCallPriority = configMAX_SYSCALL_INTERRUPT_PRIORITY & ucMaxPriorityValue;
 8002918:	4926      	ldr	r1, [pc, #152]	; (80029b4 <xPortStartScheduler+0xa8>)
		ulOriginalPriority = *pucFirstUserPriorityRegister;
 800291a:	b2d2      	uxtb	r2, r2
 800291c:	9201      	str	r2, [sp, #4]
		*pucFirstUserPriorityRegister = portMAX_8_BIT_VALUE;
 800291e:	701d      	strb	r5, [r3, #0]
		ucMaxPriorityValue = *pucFirstUserPriorityRegister;
 8002920:	781b      	ldrb	r3, [r3, #0]
		ulMaxPRIGROUPValue = portMAX_PRIGROUP_BITS;
 8002922:	4825      	ldr	r0, [pc, #148]	; (80029b8 <xPortStartScheduler+0xac>)
		ucMaxPriorityValue = *pucFirstUserPriorityRegister;
 8002924:	b2db      	uxtb	r3, r3
 8002926:	f88d 3003 	strb.w	r3, [sp, #3]
		ucMaxSysCallPriority = configMAX_SYSCALL_INTERRUPT_PRIORITY & ucMaxPriorityValue;
 800292a:	f89d 3003 	ldrb.w	r3, [sp, #3]
		while( ( ucMaxPriorityValue & portTOP_BIT_OF_BYTE ) == portTOP_BIT_OF_BYTE )
 800292e:	f89d 2003 	ldrb.w	r2, [sp, #3]
		ucMaxSysCallPriority = configMAX_SYSCALL_INTERRUPT_PRIORITY & ucMaxPriorityValue;
 8002932:	f003 0350 	and.w	r3, r3, #80	; 0x50
 8002936:	700b      	strb	r3, [r1, #0]
		while( ( ucMaxPriorityValue & portTOP_BIT_OF_BYTE ) == portTOP_BIT_OF_BYTE )
 8002938:	0611      	lsls	r1, r2, #24
		ulMaxPRIGROUPValue = portMAX_PRIGROUP_BITS;
 800293a:	6004      	str	r4, [r0, #0]
		while( ( ucMaxPriorityValue & portTOP_BIT_OF_BYTE ) == portTOP_BIT_OF_BYTE )
 800293c:	d510      	bpl.n	8002960 <xPortStartScheduler+0x54>
 800293e:	2306      	movs	r3, #6
 8002940:	e000      	b.n	8002944 <xPortStartScheduler+0x38>
 8002942:	460b      	mov	r3, r1
			ucMaxPriorityValue <<= ( uint8_t ) 0x01;
 8002944:	f89d 2003 	ldrb.w	r2, [sp, #3]
 8002948:	1e59      	subs	r1, r3, #1
 800294a:	0052      	lsls	r2, r2, #1
 800294c:	b2d2      	uxtb	r2, r2
 800294e:	f88d 2003 	strb.w	r2, [sp, #3]
		while( ( ucMaxPriorityValue & portTOP_BIT_OF_BYTE ) == portTOP_BIT_OF_BYTE )
 8002952:	f89d 2003 	ldrb.w	r2, [sp, #3]
 8002956:	0612      	lsls	r2, r2, #24
 8002958:	d4f3      	bmi.n	8002942 <xPortStartScheduler+0x36>
			configASSERT( ( portMAX_PRIGROUP_BITS - ulMaxPRIGROUPValue ) == configPRIO_BITS );
 800295a:	2b03      	cmp	r3, #3
 800295c:	6003      	str	r3, [r0, #0]
 800295e:	d008      	beq.n	8002972 <xPortStartScheduler+0x66>
	__asm volatile
 8002960:	f04f 0350 	mov.w	r3, #80	; 0x50
 8002964:	f383 8811 	msr	BASEPRI, r3
 8002968:	f3bf 8f6f 	isb	sy
 800296c:	f3bf 8f4f 	dsb	sy
 8002970:	e7fe      	b.n	8002970 <xPortStartScheduler+0x64>
	uxCriticalNesting = 0;
 8002972:	2400      	movs	r4, #0
		*pucFirstUserPriorityRegister = ulOriginalPriority;
 8002974:	9901      	ldr	r1, [sp, #4]
 8002976:	4d0e      	ldr	r5, [pc, #56]	; (80029b0 <xPortStartScheduler+0xa4>)
		ulMaxPRIGROUPValue <<= portPRIGROUP_SHIFT;
 8002978:	021b      	lsls	r3, r3, #8
	portNVIC_SYSPRI2_REG |= portNVIC_PENDSV_PRI;
 800297a:	4a10      	ldr	r2, [pc, #64]	; (80029bc <xPortStartScheduler+0xb0>)
		*pucFirstUserPriorityRegister = ulOriginalPriority;
 800297c:	b2c9      	uxtb	r1, r1
		ulMaxPRIGROUPValue &= portPRIORITY_GROUP_MASK;
 800297e:	f403 63e0 	and.w	r3, r3, #1792	; 0x700
 8002982:	6003      	str	r3, [r0, #0]
		*pucFirstUserPriorityRegister = ulOriginalPriority;
 8002984:	7029      	strb	r1, [r5, #0]
	portNVIC_SYSPRI2_REG |= portNVIC_PENDSV_PRI;
 8002986:	6813      	ldr	r3, [r2, #0]
 8002988:	f443 0370 	orr.w	r3, r3, #15728640	; 0xf00000
 800298c:	6013      	str	r3, [r2, #0]
	portNVIC_SYSPRI2_REG |= portNVIC_SYSTICK_PRI;
 800298e:	6813      	ldr	r3, [r2, #0]
 8002990:	f043 4370 	orr.w	r3, r3, #4026531840	; 0xf0000000
 8002994:	6013      	str	r3, [r2, #0]
	vPortSetupTimerInterrupt();
 8002996:	f7ff ff9b 	bl	80028d0 <vPortSetupTimerInterrupt>
	uxCriticalNesting = 0;
 800299a:	4b09      	ldr	r3, [pc, #36]	; (80029c0 <xPortStartScheduler+0xb4>)
 800299c:	601c      	str	r4, [r3, #0]
	prvPortStartFirstTask();
 800299e:	f7ff fef3 	bl	8002788 <prvPortStartFirstTask>
	vTaskSwitchContext();
 80029a2:	f7ff fb3b 	bl	800201c <vTaskSwitchContext>
	prvTaskExitError();
 80029a6:	f7ff fecf 	bl	8002748 <prvTaskExitError>
}
 80029aa:	4620      	mov	r0, r4
 80029ac:	b003      	add	sp, #12
 80029ae:	bd30      	pop	{r4, r5, pc}
 80029b0:	e000e400 	.word	0xe000e400
 80029b4:	20000d14 	.word	0x20000d14
 80029b8:	20000d18 	.word	0x20000d18
 80029bc:	e000ed20 	.word	0xe000ed20
 80029c0:	2000000c 	.word	0x2000000c

080029c4 <prvInsertBlockIntoFreeList>:
	xBlockAllocatedBit = ( ( size_t ) 1 ) << ( ( sizeof( size_t ) * heapBITS_PER_BYTE ) - 1 );
}
/*-----------------------------------------------------------*/

static void prvInsertBlockIntoFreeList( BlockLink_t *pxBlockToInsert )
{
 80029c4:	b430      	push	{r4, r5}
BlockLink_t *pxIterator;
uint8_t *puc;

	/* Iterate through the list until a block is found that has a higher address
	than the block being inserted. */
	for( pxIterator = &xStart; pxIterator->pxNextFreeBlock < pxBlockToInsert; pxIterator = pxIterator->pxNextFreeBlock )
 80029c6:	4b11      	ldr	r3, [pc, #68]	; (8002a0c <prvInsertBlockIntoFreeList+0x48>)
 80029c8:	681a      	ldr	r2, [r3, #0]
 80029ca:	4282      	cmp	r2, r0
 80029cc:	d201      	bcs.n	80029d2 <prvInsertBlockIntoFreeList+0xe>
 80029ce:	4613      	mov	r3, r2
 80029d0:	e7fa      	b.n	80029c8 <prvInsertBlockIntoFreeList+0x4>
	}

	/* Do the block being inserted, and the block it is being inserted after
	make a contiguous block of memory? */
	puc = ( uint8_t * ) pxIterator;
	if( ( puc + pxIterator->xBlockSize ) == ( uint8_t * ) pxBlockToInsert )
 80029d2:	685c      	ldr	r4, [r3, #4]
 80029d4:	1919      	adds	r1, r3, r4
 80029d6:	4288      	cmp	r0, r1
 80029d8:	d103      	bne.n	80029e2 <prvInsertBlockIntoFreeList+0x1e>
	{
		pxIterator->xBlockSize += pxBlockToInsert->xBlockSize;
 80029da:	6841      	ldr	r1, [r0, #4]
 80029dc:	4618      	mov	r0, r3
 80029de:	4421      	add	r1, r4
 80029e0:	6059      	str	r1, [r3, #4]
	}

	/* Do the block being inserted, and the block it is being inserted before
	make a contiguous block of memory? */
	puc = ( uint8_t * ) pxBlockToInsert;
	if( ( puc + pxBlockToInsert->xBlockSize ) == ( uint8_t * ) pxIterator->pxNextFreeBlock )
 80029e2:	6844      	ldr	r4, [r0, #4]
 80029e4:	1901      	adds	r1, r0, r4
 80029e6:	428a      	cmp	r2, r1
 80029e8:	d109      	bne.n	80029fe <prvInsertBlockIntoFreeList+0x3a>
	{
		if( pxIterator->pxNextFreeBlock != pxEnd )
 80029ea:	4909      	ldr	r1, [pc, #36]	; (8002a10 <prvInsertBlockIntoFreeList+0x4c>)
 80029ec:	6809      	ldr	r1, [r1, #0]
 80029ee:	428a      	cmp	r2, r1
 80029f0:	d005      	beq.n	80029fe <prvInsertBlockIntoFreeList+0x3a>
		{
			/* Form one big block from the two blocks. */
			pxBlockToInsert->xBlockSize += pxIterator->pxNextFreeBlock->xBlockSize;
			pxBlockToInsert->pxNextFreeBlock = pxIterator->pxNextFreeBlock->pxNextFreeBlock;
 80029f2:	e9d2 5100 	ldrd	r5, r1, [r2]
			pxBlockToInsert->xBlockSize += pxIterator->pxNextFreeBlock->xBlockSize;
 80029f6:	4421      	add	r1, r4
			pxBlockToInsert->pxNextFreeBlock = pxIterator->pxNextFreeBlock->pxNextFreeBlock;
 80029f8:	e9c0 5100 	strd	r5, r1, [r0]
 80029fc:	e000      	b.n	8002a00 <prvInsertBlockIntoFreeList+0x3c>
			pxBlockToInsert->pxNextFreeBlock = pxEnd;
		}
	}
	else
	{
		pxBlockToInsert->pxNextFreeBlock = pxIterator->pxNextFreeBlock;
 80029fe:	6002      	str	r2, [r0, #0]

	/* If the block being inserted plugged a gab, so was merged with the block
	before and the block after, then it's pxNextFreeBlock pointer will have
	already been set, and should not be set here as that would make it point
	to itself. */
	if( pxIterator != pxBlockToInsert )
 8002a00:	4298      	cmp	r0, r3
	{
		pxIterator->pxNextFreeBlock = pxBlockToInsert;
 8002a02:	bf18      	it	ne
 8002a04:	6018      	strne	r0, [r3, #0]
	}
	else
	{
		mtCOVERAGE_TEST_MARKER();
	}
}
 8002a06:	bc30      	pop	{r4, r5}
 8002a08:	4770      	bx	lr
 8002a0a:	bf00      	nop
 8002a0c:	2000192c 	.word	0x2000192c
 8002a10:	20000d1c 	.word	0x20000d1c

08002a14 <pvPortMalloc>:
{
 8002a14:	e92d 41f0 	stmdb	sp!, {r4, r5, r6, r7, r8, lr}
		if( pxEnd == NULL )
 8002a18:	4f41      	ldr	r7, [pc, #260]	; (8002b20 <pvPortMalloc+0x10c>)
{
 8002a1a:	4604      	mov	r4, r0
	vTaskSuspendAll();
 8002a1c:	f7ff f9a2 	bl	8001d64 <vTaskSuspendAll>
		if( pxEnd == NULL )
 8002a20:	683a      	ldr	r2, [r7, #0]
 8002a22:	2a00      	cmp	r2, #0
 8002a24:	d05a      	beq.n	8002adc <pvPortMalloc+0xc8>
 8002a26:	4b3f      	ldr	r3, [pc, #252]	; (8002b24 <pvPortMalloc+0x110>)
 8002a28:	681e      	ldr	r6, [r3, #0]
		if( ( xWantedSize & xBlockAllocatedBit ) == 0 )
 8002a2a:	4234      	tst	r4, r6
 8002a2c:	d150      	bne.n	8002ad0 <pvPortMalloc+0xbc>
			if( xWantedSize > 0 )
 8002a2e:	2c00      	cmp	r4, #0
 8002a30:	d04e      	beq.n	8002ad0 <pvPortMalloc+0xbc>
				xWantedSize += xHeapStructSize;
 8002a32:	f104 0308 	add.w	r3, r4, #8
				if( ( xWantedSize & portBYTE_ALIGNMENT_MASK ) != 0x00 )
 8002a36:	0758      	lsls	r0, r3, #29
					xWantedSize += ( portBYTE_ALIGNMENT - ( xWantedSize & portBYTE_ALIGNMENT_MASK ) );
 8002a38:	bf1c      	itt	ne
 8002a3a:	f023 0307 	bicne.w	r3, r3, #7
 8002a3e:	3308      	addne	r3, #8
			if( ( xWantedSize > 0 ) && ( xWantedSize <= xFreeBytesRemaining ) )
 8002a40:	2b00      	cmp	r3, #0
 8002a42:	d045      	beq.n	8002ad0 <pvPortMalloc+0xbc>
 8002a44:	f8df 80f0 	ldr.w	r8, [pc, #240]	; 8002b38 <pvPortMalloc+0x124>
 8002a48:	f8d8 5000 	ldr.w	r5, [r8]
 8002a4c:	429d      	cmp	r5, r3
 8002a4e:	d33f      	bcc.n	8002ad0 <pvPortMalloc+0xbc>
				pxBlock = xStart.pxNextFreeBlock;
 8002a50:	4835      	ldr	r0, [pc, #212]	; (8002b28 <pvPortMalloc+0x114>)
 8002a52:	6804      	ldr	r4, [r0, #0]
				while( ( pxBlock->xBlockSize < xWantedSize ) && ( pxBlock->pxNextFreeBlock != NULL ) )
 8002a54:	e006      	b.n	8002a64 <pvPortMalloc+0x50>
 8002a56:	f8d4 c000 	ldr.w	ip, [r4]
 8002a5a:	f1bc 0f00 	cmp.w	ip, #0
 8002a5e:	d004      	beq.n	8002a6a <pvPortMalloc+0x56>
 8002a60:	4620      	mov	r0, r4
 8002a62:	4664      	mov	r4, ip
 8002a64:	6861      	ldr	r1, [r4, #4]
 8002a66:	4299      	cmp	r1, r3
 8002a68:	d3f5      	bcc.n	8002a56 <pvPortMalloc+0x42>
				if( pxBlock != pxEnd )
 8002a6a:	4294      	cmp	r4, r2
 8002a6c:	d030      	beq.n	8002ad0 <pvPortMalloc+0xbc>
					if( ( pxBlock->xBlockSize - xWantedSize ) > heapMINIMUM_BLOCK_SIZE )
 8002a6e:	1aca      	subs	r2, r1, r3
					pxPreviousBlock->pxNextFreeBlock = pxBlock->pxNextFreeBlock;
 8002a70:	6827      	ldr	r7, [r4, #0]
					if( ( pxBlock->xBlockSize - xWantedSize ) > heapMINIMUM_BLOCK_SIZE )
 8002a72:	2a10      	cmp	r2, #16
					pxPreviousBlock->pxNextFreeBlock = pxBlock->pxNextFreeBlock;
 8002a74:	6007      	str	r7, [r0, #0]
					if( ( pxBlock->xBlockSize - xWantedSize ) > heapMINIMUM_BLOCK_SIZE )
 8002a76:	d910      	bls.n	8002a9a <pvPortMalloc+0x86>
						pxNewBlockLink = ( void * ) ( ( ( uint8_t * ) pxBlock ) + xWantedSize );
 8002a78:	18e0      	adds	r0, r4, r3
						configASSERT( ( ( ( size_t ) pxNewBlockLink ) & portBYTE_ALIGNMENT_MASK ) == 0 );
 8002a7a:	0741      	lsls	r1, r0, #29
 8002a7c:	d008      	beq.n	8002a90 <pvPortMalloc+0x7c>
 8002a7e:	f04f 0350 	mov.w	r3, #80	; 0x50
 8002a82:	f383 8811 	msr	BASEPRI, r3
 8002a86:	f3bf 8f6f 	isb	sy
 8002a8a:	f3bf 8f4f 	dsb	sy
 8002a8e:	e7fe      	b.n	8002a8e <pvPortMalloc+0x7a>
						pxNewBlockLink->xBlockSize = pxBlock->xBlockSize - xWantedSize;
 8002a90:	6042      	str	r2, [r0, #4]
						pxBlock->xBlockSize = xWantedSize;
 8002a92:	6063      	str	r3, [r4, #4]
						prvInsertBlockIntoFreeList( pxNewBlockLink );
 8002a94:	f7ff ff96 	bl	80029c4 <prvInsertBlockIntoFreeList>
 8002a98:	6861      	ldr	r1, [r4, #4]
					pxBlock->pxNextFreeBlock = NULL;
 8002a9a:	2300      	movs	r3, #0
					if( xFreeBytesRemaining < xMinimumEverFreeBytesRemaining )
 8002a9c:	4a23      	ldr	r2, [pc, #140]	; (8002b2c <pvPortMalloc+0x118>)
					xFreeBytesRemaining -= pxBlock->xBlockSize;
 8002a9e:	1a6d      	subs	r5, r5, r1
					if( xFreeBytesRemaining < xMinimumEverFreeBytesRemaining )
 8002aa0:	6810      	ldr	r0, [r2, #0]
					pxBlock->xBlockSize |= xBlockAllocatedBit;
 8002aa2:	4331      	orrs	r1, r6
					if( xFreeBytesRemaining < xMinimumEverFreeBytesRemaining )
 8002aa4:	4285      	cmp	r5, r0
					pxBlock->pxNextFreeBlock = NULL;
 8002aa6:	e9c4 3100 	strd	r3, r1, [r4]
					pvReturn = ( void * ) ( ( ( uint8_t * ) pxPreviousBlock->pxNextFreeBlock ) + xHeapStructSize );
 8002aaa:	f104 0408 	add.w	r4, r4, #8
						xMinimumEverFreeBytesRemaining = xFreeBytesRemaining;
 8002aae:	bf38      	it	cc
 8002ab0:	6015      	strcc	r5, [r2, #0]
					xFreeBytesRemaining -= pxBlock->xBlockSize;
 8002ab2:	f8c8 5000 	str.w	r5, [r8]
	( void ) xTaskResumeAll();
 8002ab6:	f7ff fa07 	bl	8001ec8 <xTaskResumeAll>
	configASSERT( ( ( ( size_t ) pvReturn ) & ( size_t ) portBYTE_ALIGNMENT_MASK ) == 0 );
 8002aba:	0763      	lsls	r3, r4, #29
 8002abc:	d00b      	beq.n	8002ad6 <pvPortMalloc+0xc2>
 8002abe:	f04f 0350 	mov.w	r3, #80	; 0x50
 8002ac2:	f383 8811 	msr	BASEPRI, r3
 8002ac6:	f3bf 8f6f 	isb	sy
 8002aca:	f3bf 8f4f 	dsb	sy
 8002ace:	e7fe      	b.n	8002ace <pvPortMalloc+0xba>
	( void ) xTaskResumeAll();
 8002ad0:	f7ff f9fa 	bl	8001ec8 <xTaskResumeAll>
 8002ad4:	2400      	movs	r4, #0
}
 8002ad6:	4620      	mov	r0, r4
 8002ad8:	e8bd 81f0 	ldmia.w	sp!, {r4, r5, r6, r7, r8, pc}
	uxAddress = ( size_t ) ucHeap;
 8002adc:	4b14      	ldr	r3, [pc, #80]	; (8002b30 <pvPortMalloc+0x11c>)
	xStart.xBlockSize = ( size_t ) 0;
 8002ade:	2000      	movs	r0, #0
	if( ( uxAddress & portBYTE_ALIGNMENT_MASK ) != 0 )
 8002ae0:	075d      	lsls	r5, r3, #29
		uxAddress += ( portBYTE_ALIGNMENT - 1 );
 8002ae2:	bf1c      	itt	ne
 8002ae4:	3307      	addne	r3, #7
		uxAddress &= ~( ( size_t ) portBYTE_ALIGNMENT_MASK );
 8002ae6:	f023 0307 	bicne.w	r3, r3, #7
	if( ( uxAddress & portBYTE_ALIGNMENT_MASK ) != 0 )
 8002aea:	4619      	mov	r1, r3
	xBlockAllocatedBit = ( ( size_t ) 1 ) << ( ( sizeof( size_t ) * heapBITS_PER_BYTE ) - 1 );
 8002aec:	f04f 4500 	mov.w	r5, #2147483648	; 0x80000000
	uxAddress -= xHeapStructSize;
 8002af0:	4a10      	ldr	r2, [pc, #64]	; (8002b34 <pvPortMalloc+0x120>)
	xStart.pxNextFreeBlock = ( void * ) pucAlignedHeap;
 8002af2:	f8df c034 	ldr.w	ip, [pc, #52]	; 8002b28 <pvPortMalloc+0x114>
	uxAddress &= ~( ( size_t ) portBYTE_ALIGNMENT_MASK );
 8002af6:	f022 0207 	bic.w	r2, r2, #7
	pxFirstFreeBlock->xBlockSize = uxAddress - ( size_t ) pxFirstFreeBlock;
 8002afa:	1ad3      	subs	r3, r2, r3
	xStart.xBlockSize = ( size_t ) 0;
 8002afc:	f8cc 0004 	str.w	r0, [ip, #4]
	xStart.pxNextFreeBlock = ( void * ) pucAlignedHeap;
 8002b00:	f8cc 1000 	str.w	r1, [ip]
	pxEnd = ( void * ) uxAddress;
 8002b04:	603a      	str	r2, [r7, #0]
	pxEnd->pxNextFreeBlock = NULL;
 8002b06:	e9c2 0000 	strd	r0, r0, [r2]
	xMinimumEverFreeBytesRemaining = pxFirstFreeBlock->xBlockSize;
 8002b0a:	4f08      	ldr	r7, [pc, #32]	; (8002b2c <pvPortMalloc+0x118>)
	pxFirstFreeBlock->pxNextFreeBlock = pxEnd;
 8002b0c:	e9c1 2300 	strd	r2, r3, [r1]
	xFreeBytesRemaining = pxFirstFreeBlock->xBlockSize;
 8002b10:	4809      	ldr	r0, [pc, #36]	; (8002b38 <pvPortMalloc+0x124>)
	xBlockAllocatedBit = ( ( size_t ) 1 ) << ( ( sizeof( size_t ) * heapBITS_PER_BYTE ) - 1 );
 8002b12:	4904      	ldr	r1, [pc, #16]	; (8002b24 <pvPortMalloc+0x110>)
 8002b14:	462e      	mov	r6, r5
	xMinimumEverFreeBytesRemaining = pxFirstFreeBlock->xBlockSize;
 8002b16:	603b      	str	r3, [r7, #0]
	xFreeBytesRemaining = pxFirstFreeBlock->xBlockSize;
 8002b18:	6003      	str	r3, [r0, #0]
	xBlockAllocatedBit = ( ( size_t ) 1 ) << ( ( sizeof( size_t ) * heapBITS_PER_BYTE ) - 1 );
 8002b1a:	600d      	str	r5, [r1, #0]
 8002b1c:	e785      	b.n	8002a2a <pvPortMalloc+0x16>
 8002b1e:	bf00      	nop
 8002b20:	20000d1c 	.word	0x20000d1c
 8002b24:	20001920 	.word	0x20001920
 8002b28:	2000192c 	.word	0x2000192c
 8002b2c:	20001928 	.word	0x20001928
 8002b30:	20000d20 	.word	0x20000d20
 8002b34:	20001918 	.word	0x20001918
 8002b38:	20001924 	.word	0x20001924

08002b3c <vPortFree>:
	if( pv != NULL )
 8002b3c:	b1d0      	cbz	r0, 8002b74 <vPortFree+0x38>
		configASSERT( ( pxLink->xBlockSize & xBlockAllocatedBit ) != 0 );
 8002b3e:	4a19      	ldr	r2, [pc, #100]	; (8002ba4 <vPortFree+0x68>)
 8002b40:	f850 3c04 	ldr.w	r3, [r0, #-4]
 8002b44:	6812      	ldr	r2, [r2, #0]
 8002b46:	4213      	tst	r3, r2
 8002b48:	d108      	bne.n	8002b5c <vPortFree+0x20>
 8002b4a:	f04f 0350 	mov.w	r3, #80	; 0x50
 8002b4e:	f383 8811 	msr	BASEPRI, r3
 8002b52:	f3bf 8f6f 	isb	sy
 8002b56:	f3bf 8f4f 	dsb	sy
 8002b5a:	e7fe      	b.n	8002b5a <vPortFree+0x1e>
		configASSERT( pxLink->pxNextFreeBlock == NULL );
 8002b5c:	f850 1c08 	ldr.w	r1, [r0, #-8]
 8002b60:	b149      	cbz	r1, 8002b76 <vPortFree+0x3a>
 8002b62:	f04f 0350 	mov.w	r3, #80	; 0x50
 8002b66:	f383 8811 	msr	BASEPRI, r3
 8002b6a:	f3bf 8f6f 	isb	sy
 8002b6e:	f3bf 8f4f 	dsb	sy
 8002b72:	e7fe      	b.n	8002b72 <vPortFree+0x36>
 8002b74:	4770      	bx	lr
{
 8002b76:	b510      	push	{r4, lr}
 8002b78:	4604      	mov	r4, r0
				pxLink->xBlockSize &= ~xBlockAllocatedBit;
 8002b7a:	ea23 0302 	bic.w	r3, r3, r2
 8002b7e:	f840 3c04 	str.w	r3, [r0, #-4]
				vTaskSuspendAll();
 8002b82:	f7ff f8ef 	bl	8001d64 <vTaskSuspendAll>
					xFreeBytesRemaining += pxLink->xBlockSize;
 8002b86:	4a08      	ldr	r2, [pc, #32]	; (8002ba8 <vPortFree+0x6c>)
 8002b88:	f854 3c04 	ldr.w	r3, [r4, #-4]
 8002b8c:	6811      	ldr	r1, [r2, #0]
					prvInsertBlockIntoFreeList( ( ( BlockLink_t * ) pxLink ) );
 8002b8e:	f1a4 0008 	sub.w	r0, r4, #8
					xFreeBytesRemaining += pxLink->xBlockSize;
 8002b92:	440b      	add	r3, r1
 8002b94:	6013      	str	r3, [r2, #0]
					prvInsertBlockIntoFreeList( ( ( BlockLink_t * ) pxLink ) );
 8002b96:	f7ff ff15 	bl	80029c4 <prvInsertBlockIntoFreeList>
}
 8002b9a:	e8bd 4010 	ldmia.w	sp!, {r4, lr}
				( void ) xTaskResumeAll();
 8002b9e:	f7ff b993 	b.w	8001ec8 <xTaskResumeAll>
 8002ba2:	bf00      	nop
 8002ba4:	20001920 	.word	0x20001920
 8002ba8:	20001924 	.word	0x20001924

08002bac <__libc_init_array>:
 8002bac:	b570      	push	{r4, r5, r6, lr}
 8002bae:	2500      	movs	r5, #0
 8002bb0:	4e0c      	ldr	r6, [pc, #48]	; (8002be4 <__libc_init_array+0x38>)
 8002bb2:	4c0d      	ldr	r4, [pc, #52]	; (8002be8 <__libc_init_array+0x3c>)
 8002bb4:	1ba4      	subs	r4, r4, r6
 8002bb6:	10a4      	asrs	r4, r4, #2
 8002bb8:	42a5      	cmp	r5, r4
 8002bba:	d109      	bne.n	8002bd0 <__libc_init_array+0x24>
 8002bbc:	f000 f82e 	bl	8002c1c <_init>
 8002bc0:	2500      	movs	r5, #0
 8002bc2:	4e0a      	ldr	r6, [pc, #40]	; (8002bec <__libc_init_array+0x40>)
 8002bc4:	4c0a      	ldr	r4, [pc, #40]	; (8002bf0 <__libc_init_array+0x44>)
 8002bc6:	1ba4      	subs	r4, r4, r6
 8002bc8:	10a4      	asrs	r4, r4, #2
 8002bca:	42a5      	cmp	r5, r4
 8002bcc:	d105      	bne.n	8002bda <__libc_init_array+0x2e>
 8002bce:	bd70      	pop	{r4, r5, r6, pc}
 8002bd0:	f856 3025 	ldr.w	r3, [r6, r5, lsl #2]
 8002bd4:	4798      	blx	r3
 8002bd6:	3501      	adds	r5, #1
 8002bd8:	e7ee      	b.n	8002bb8 <__libc_init_array+0xc>
 8002bda:	f856 3025 	ldr.w	r3, [r6, r5, lsl #2]
 8002bde:	4798      	blx	r3
 8002be0:	3501      	adds	r5, #1
 8002be2:	e7f2      	b.n	8002bca <__libc_init_array+0x1e>
 8002be4:	08002cfc 	.word	0x08002cfc
 8002be8:	08002cfc 	.word	0x08002cfc
 8002bec:	08002cfc 	.word	0x08002cfc
 8002bf0:	08002d00 	.word	0x08002d00

08002bf4 <memcpy>:
 8002bf4:	b510      	push	{r4, lr}
 8002bf6:	1e43      	subs	r3, r0, #1
 8002bf8:	440a      	add	r2, r1
 8002bfa:	4291      	cmp	r1, r2
 8002bfc:	d100      	bne.n	8002c00 <memcpy+0xc>
 8002bfe:	bd10      	pop	{r4, pc}
 8002c00:	f811 4b01 	ldrb.w	r4, [r1], #1
 8002c04:	f803 4f01 	strb.w	r4, [r3, #1]!
 8002c08:	e7f7      	b.n	8002bfa <memcpy+0x6>

08002c0a <memset>:
 8002c0a:	4603      	mov	r3, r0
 8002c0c:	4402      	add	r2, r0
 8002c0e:	4293      	cmp	r3, r2
 8002c10:	d100      	bne.n	8002c14 <memset+0xa>
 8002c12:	4770      	bx	lr
 8002c14:	f803 1b01 	strb.w	r1, [r3], #1
 8002c18:	e7f9      	b.n	8002c0e <memset+0x4>
	...

08002c1c <_init>:
 8002c1c:	b5f8      	push	{r3, r4, r5, r6, r7, lr}
 8002c1e:	bf00      	nop
 8002c20:	bcf8      	pop	{r3, r4, r5, r6, r7}
 8002c22:	bc08      	pop	{r3}
 8002c24:	469e      	mov	lr, r3
 8002c26:	4770      	bx	lr

08002c28 <_fini>:
 8002c28:	b5f8      	push	{r3, r4, r5, r6, r7, lr}
 8002c2a:	bf00      	nop
 8002c2c:	bcf8      	pop	{r3, r4, r5, r6, r7}
 8002c2e:	bc08      	pop	{r3}
 8002c30:	469e      	mov	lr, r3
 8002c32:	4770      	bx	lr
